
C:/EEC181A/CameraClean/part2.axf:     file format elf32-littlearm


Disassembly of section .text:

00000000 <__cs3_interrupt_vector>:
       0:	18 f0 9f e5 18 f0 9f e5 18 f0 9f e5 18 f0 9f e5     ................
      10:	18 f0 9f e5 18 f0 9f e5 18 f0 9f e5 18 f0 9f e5     ................
      20:	40 00 00 00 c8 4d 01 00 cc 4d 01 00 d0 4d 01 00     @....M...M...M..
      30:	d4 4d 01 00 c4 4d 01 00 d8 4d 01 00 dc 4d 01 00     .M...M...M...M..

00000040 <__cs3_reset>:
      40:	ea000026 	b	e0 <__cs3_start_asm_sim>

00000044 <__cs3_start_c>:
      44:	e59f608c 	ldr	r6, [pc, #140]	; d8 <__cs3_start_c+0x94>
      48:	e3560000 	cmp	r6, #0
      4c:	e92d4080 	push	{r7, lr}
      50:	e2466001 	sub	r6, r6, #1
      54:	0a00001e 	beq	d4 <__cs3_start_c+0x90>
      58:	e59f507c 	ldr	r5, [pc, #124]	; dc <__cs3_start_c+0x98>
      5c:	e3a00000 	mov	r0, #0
      60:	e3a01000 	mov	r1, #0
      64:	e515200c 	ldr	r2, [r5, #-12]
      68:	e515e010 	ldr	lr, [r5, #-16]
      6c:	e5154008 	ldr	r4, [r5, #-8]
      70:	e15e0002 	cmp	lr, r2
      74:	00822004 	addeq	r2, r2, r4
      78:	0a000009 	beq	a4 <__cs3_start_c+0x60>
      7c:	e3540000 	cmp	r4, #0
      80:	0a000007 	beq	a4 <__cs3_start_c+0x60>
      84:	e1a07002 	mov	r7, r2
      88:	e1a0c002 	mov	r12, r2
      8c:	e8be000c 	ldm	lr!, {r2, r3}
      90:	e8ac000c 	stmia	r12!, {r2, r3}
      94:	e067300c 	rsb	r3, r7, r12
      98:	e1540003 	cmp	r4, r3
      9c:	e1a0200c 	mov	r2, r12
      a0:	1afffff9 	bne	8c <__cs3_start_c+0x48>
      a4:	e515e004 	ldr	lr, [r5, #-4]
      a8:	e35e0000 	cmp	lr, #0
      ac:	11a03002 	movne	r3, r2
      b0:	0a000003 	beq	c4 <__cs3_start_c+0x80>
      b4:	e8a30003 	stmia	r3!, {r0, r1}
      b8:	e062c003 	rsb	r12, r2, r3
      bc:	e15e000c 	cmp	lr, r12
      c0:	1afffffb 	bne	b4 <__cs3_start_c+0x70>
      c4:	e2466001 	sub	r6, r6, #1
      c8:	e3760001 	cmn	r6, #1
      cc:	e2855014 	add	r5, r5, #20
      d0:	1affffe3 	bne	64 <__cs3_start_c+0x20>
      d4:	eb00519d 	bl	14750 <__cs3_premain>
      d8:	00000001 	.word	0x00000001
      dc:	000152fc 	.word	0x000152fc

000000e0 <__cs3_start_asm_sim>:
      e0:	e28f103c 	add	r1, pc, #60	; 0x3c
      e4:	e3a00016 	mov	r0, #22
      e8:	ef123456 	svc	0x00123456
      ec:	e3500000 	cmp	r0, #0
      f0:	ba000008 	blt	118 <__cs3_start_asm_sim+0x38>
      f4:	e59f2028 	ldr	r2, [pc, #40]	; 124 <__cs3_heap_start_ptr>
      f8:	e59fd01c 	ldr	sp, [pc, #28]	; 11c <__cs3_start_asm_sim+0x3c>
      fc:	e5920008 	ldr	r0, [r2, #8]
     100:	e3500000 	cmp	r0, #0
     104:	11a0d000 	movne	sp, r0
     108:	e59f1010 	ldr	r1, [pc, #16]	; 120 <__cs3_start_asm_sim+0x40>
     10c:	e5920004 	ldr	r0, [r2, #4]
     110:	e3500000 	cmp	r0, #0
     114:	15810000 	strne	r0, [r1]
     118:	eaffffc9 	b	44 <__cs3_start_c>
     11c:	3ffffffc 	.word	0x3ffffffc
     120:	0019ad38 	.word	0x0019ad38

00000124 <__cs3_heap_start_ptr>:
     124:	002c7598 	.word	0x002c7598

00000128 <_start>:
     128:	e51fd000 	ldr	sp, [pc, #-0]	; 130 <_start+0x8>
     12c:	eaffffc4 	b	44 <__cs3_start_c>
     130:	3ffffffc 	.word	0x3ffffffc

00000134 <deregister_tm_clones>:
     134:	e92d4008 	push	{r3, lr}
     138:	e59f002c 	ldr	r0, [pc, #44]	; 16c <deregister_tm_clones+0x38>
     13c:	e59f302c 	ldr	r3, [pc, #44]	; 170 <deregister_tm_clones+0x3c>
     140:	e0603003 	rsb	r3, r0, r3
     144:	e3530006 	cmp	r3, #6
     148:	8a000001 	bhi	154 <deregister_tm_clones+0x20>
     14c:	e8bd4008 	pop	{r3, lr}
     150:	e12fff1e 	bx	lr
     154:	e59f3018 	ldr	r3, [pc, #24]	; 174 <deregister_tm_clones+0x40>
     158:	e3530000 	cmp	r3, #0
     15c:	0afffffa 	beq	14c <deregister_tm_clones+0x18>
     160:	e1a0e00f 	mov	lr, pc
     164:	e12fff13 	bx	r3
     168:	eafffff7 	b	14c <deregister_tm_clones+0x18>
     16c:	0019ad40 	.word	0x0019ad40
     170:	0019ad43 	.word	0x0019ad43
     174:	00000000 	.word	0x00000000

00000178 <register_tm_clones>:
     178:	e92d4008 	push	{r3, lr}
     17c:	e59f0034 	ldr	r0, [pc, #52]	; 1b8 <register_tm_clones+0x40>
     180:	e59f3034 	ldr	r3, [pc, #52]	; 1bc <register_tm_clones+0x44>
     184:	e0603003 	rsb	r3, r0, r3
     188:	e1a03143 	asr	r3, r3, #2
     18c:	e0833fa3 	add	r3, r3, r3, lsr #31
     190:	e1b010c3 	asrs	r1, r3, #1
     194:	1a000001 	bne	1a0 <register_tm_clones+0x28>
     198:	e8bd4008 	pop	{r3, lr}
     19c:	e12fff1e 	bx	lr
     1a0:	e59f2018 	ldr	r2, [pc, #24]	; 1c0 <register_tm_clones+0x48>
     1a4:	e3520000 	cmp	r2, #0
     1a8:	0afffffa 	beq	198 <register_tm_clones+0x20>
     1ac:	e1a0e00f 	mov	lr, pc
     1b0:	e12fff12 	bx	r2
     1b4:	eafffff7 	b	198 <register_tm_clones+0x20>
     1b8:	0019ad40 	.word	0x0019ad40
     1bc:	0019ad40 	.word	0x0019ad40
     1c0:	00000000 	.word	0x00000000

000001c4 <__do_global_dtors_aux>:
     1c4:	e92d4010 	push	{r4, lr}
     1c8:	e59f402c 	ldr	r4, [pc, #44]	; 1fc <__do_global_dtors_aux+0x38>
     1cc:	e5d43000 	ldrb	r3, [r4]
     1d0:	e3530000 	cmp	r3, #0
     1d4:	1a000006 	bne	1f4 <__do_global_dtors_aux+0x30>
     1d8:	ebffffd5 	bl	134 <deregister_tm_clones>
     1dc:	e59f301c 	ldr	r3, [pc, #28]	; 200 <__do_global_dtors_aux+0x3c>
     1e0:	e3530000 	cmp	r3, #0
     1e4:	159f0018 	ldrne	r0, [pc, #24]	; 204 <__do_global_dtors_aux+0x40>
     1e8:	1320f000 	nopne	{0}
     1ec:	e3a03001 	mov	r3, #1
     1f0:	e5c43000 	strb	r3, [r4]
     1f4:	e8bd4010 	pop	{r4, lr}
     1f8:	e12fff1e 	bx	lr
     1fc:	0019ad40 	.word	0x0019ad40
     200:	00000000 	.word	0x00000000
     204:	00014e78 	.word	0x00014e78

00000208 <frame_dummy>:
     208:	e92d4008 	push	{r3, lr}
     20c:	e59f3034 	ldr	r3, [pc, #52]	; 248 <frame_dummy+0x40>
     210:	e3530000 	cmp	r3, #0
     214:	159f0030 	ldrne	r0, [pc, #48]	; 24c <frame_dummy+0x44>
     218:	159f1030 	ldrne	r1, [pc, #48]	; 250 <frame_dummy+0x48>
     21c:	1320f000 	nopne	{0}
     220:	e59f002c 	ldr	r0, [pc, #44]	; 254 <frame_dummy+0x4c>
     224:	e5903000 	ldr	r3, [r0]
     228:	e3530000 	cmp	r3, #0
     22c:	0a000003 	beq	240 <frame_dummy+0x38>
     230:	e59f3020 	ldr	r3, [pc, #32]	; 258 <frame_dummy+0x50>
     234:	e3530000 	cmp	r3, #0
     238:	11a0e00f 	movne	lr, pc
     23c:	112fff13 	bxne	r3
     240:	e8bd4008 	pop	{r3, lr}
     244:	eaffffcb 	b	178 <register_tm_clones>
     248:	00000000 	.word	0x00000000
     24c:	00014e78 	.word	0x00014e78
     250:	0019ad44 	.word	0x0019ad44
     254:	00015300 	.word	0x00015300
     258:	00000000 	.word	0x00000000

0000025c <reshape>:
  // Clear overflows:
  asm volatile ("MCR p15, 0, %0, c9, c12, 3\t\n" :: "r"(0x8000000f));
}

//digit detection
void reshape(void){
     25c:	e30a0d5c 	movw	r0, #44380	; 0xad5c
     260:	e92d0030 	push	{r4, r5}
     264:	e3400019 	movt	r0, #25
     268:	e3e0c000 	mvn	r12, #0
    //use global 28 by 28 to convert to 784 array
    int globalIndex=0;
    int i,j;
    for (i=0; i<28; i++) {
     26c:	e300530f 	movw	r5, #783	; 0x30f
     270:	e2804e31 	add	r4, r0, #784	; 0x310
  // Clear overflows:
  asm volatile ("MCR p15, 0, %0, c9, c12, 3\t\n" :: "r"(0x8000000f));
}

//digit detection
void reshape(void){
     274:	e084200c 	add	r2, r4, r12
     278:	e3a03000 	mov	r3, #0
    //use global 28 by 28 to convert to 784 array
    int globalIndex=0;
    int i,j;
    for (i=0; i<28; i++) {
        for (j=0; j<28; j++) {
            smallImageReshape[globalIndex]=smallImage[j][i];//take columnwise for reshape
     27c:	e7d01003 	ldrb	r1, [r0, r3]
     280:	e283301c 	add	r3, r3, #28
void reshape(void){
    //use global 28 by 28 to convert to 784 array
    int globalIndex=0;
    int i,j;
    for (i=0; i<28; i++) {
        for (j=0; j<28; j++) {
     284:	e3530e31 	cmp	r3, #784	; 0x310
            smallImageReshape[globalIndex]=smallImage[j][i];//take columnwise for reshape
     288:	e5e21001 	strb	r1, [r2, #1]!
void reshape(void){
    //use global 28 by 28 to convert to 784 array
    int globalIndex=0;
    int i,j;
    for (i=0; i<28; i++) {
        for (j=0; j<28; j++) {
     28c:	1afffffa 	bne	27c <reshape+0x20>
     290:	e28cc01c 	add	r12, r12, #28
     294:	e2800001 	add	r0, r0, #1
//digit detection
void reshape(void){
    //use global 28 by 28 to convert to 784 array
    int globalIndex=0;
    int i,j;
    for (i=0; i<28; i++) {
     298:	e15c0005 	cmp	r12, r5
     29c:	1afffff4 	bne	274 <reshape+0x18>
            smallImageReshape[globalIndex]=smallImage[j][i];//take columnwise for reshape
            globalIndex++;
            
        }
    }
}
     2a0:	e8bd0030 	pop	{r4, r5}
     2a4:	e12fff1e 	bx	lr

000002a8 <findDigit>:

void findDigit(int whichDigit){
     2a8:	e92d4ff0 	push	{r4, r5, r6, r7, r8, r9, r10, r11, lr}
     2ac:	e24dded2 	sub	sp, sp, #3360	; 0xd20
     2b0:	e24dd00c 	sub	sp, sp, #12

static inline unsigned int getCycles ()
{
  unsigned int cycleCount;
  // Read CCNT register
  asm volatile ("MRC p15, 0, %0, c9, c13, 0\t\n": "=r"(cycleCount));  
     2b4:	ee193f1d 	mrc	15, 0, r3, cr9, cr13, {0}
     2b8:	ee193f1d 	mrc	15, 0, r3, cr9, cr13, {0}
     2bc:	e59f8920 	ldr	r8, [pc, #2336]	; be4 <findDigit+0x93c>
     2c0:	e3057308 	movw	r7, #21256	; 0x5308
     2c4:	e28dbe6e 	add	r11, sp, #1760	; 0x6e0
     2c8:	e3407001 	movt	r7, #1
     2cc:	e28d60a8 	add	r6, sp, #168	; 0xa8
     2d0:	e28bb008 	add	r11, r11, #8
            
        }
    }
}

void findDigit(int whichDigit){
     2d4:	e288ae31 	add	r10, r8, #784	; 0x310
     2d8:	ea000002 	b	2e8 <findDigit+0x40>
	
	/*for(i=0;i<200;i++){
        z1[i][0]=finalB1L1[i][0];
        
    }*/
    for(i=0;i<784;i++){
     2dc:	e158000a 	cmp	r8, r10
     2e0:	e2877008 	add	r7, r7, #8
     2e4:	0a00000e 	beq	324 <findDigit+0x7c>
        if(smallImageReshape[i]==1){
     2e8:	e5f83001 	ldrb	r3, [r8, #1]!
     2ec:	e3530001 	cmp	r3, #1
     2f0:	1afffff9 	bne	2dc <findDigit+0x34>
     2f4:	e1a04006 	mov	r4, r6
            
        }
    }
}

void findDigit(int whichDigit){
     2f8:	e3a05000 	mov	r5, #0
        
    }*/
    for(i=0;i<784;i++){
        if(smallImageReshape[i]==1){
            for(j=0;j<200;j++){
                z1[j][0]+=finalW1L1[j][i];
     2fc:	e1c400d0 	ldrd	r0, [r4]
     300:	e18720d5 	ldrd	r2, [r7, r5]
     304:	e2855d62 	add	r5, r5, #6272	; 0x1880
     308:	eb0005a0 	bl	1990 <__adddf3>
     30c:	e0c400f8 	strd	r0, [r4], #8
        z1[i][0]=finalB1L1[i][0];
        
    }*/
    for(i=0;i<784;i++){
        if(smallImageReshape[i]==1){
            for(j=0;j<200;j++){
     310:	e154000b 	cmp	r4, r11
     314:	1afffff8 	bne	2fc <findDigit+0x54>
	
	/*for(i=0;i<200;i++){
        z1[i][0]=finalB1L1[i][0];
        
    }*/
    for(i=0;i<784;i++){
     318:	e158000a 	cmp	r8, r10
     31c:	e2877008 	add	r7, r7, #8
     320:	1afffff0 	bne	2e8 <findDigit+0x40>
     324:	e59f78bc 	ldr	r7, [pc, #2236]	; be8 <findDigit+0x940>
     328:	e1a09006 	mov	r9, r6
     32c:	e286a008 	add	r10, r6, #8
     330:	e3a08000 	mov	r8, #0
            
        }
    }
}

void findDigit(int whichDigit){
     334:	e086c188 	add	r12, r6, r8, lsl #3
                z1[j][0]+=finalW1L1[j][i];
            }
        }
    }
    for(i=0;i<200;i++){
        z1[i][0]+=finalB1L1[i][0];
     338:	e14a00d8 	ldrd	r0, [r10, #-8]
     33c:	e1c720d0 	ldrd	r2, [r7]
     340:	e3a05000 	mov	r5, #0
     344:	f5dcf080 	pld	[r12, #128]	; 0x80
     348:	e3a04000 	mov	r4, #0
     34c:	eb00058f 	bl	1990 <__adddf3>
     350:	e3a02000 	mov	r2, #0
     354:	e3a03000 	mov	r3, #0
     358:	eb0007f0 	bl	2320 <__aeabi_dcmplt>
     35c:	e3a01000 	mov	r1, #0
     360:	e3500000 	cmp	r0, #0
     364:	e3a00000 	mov	r0, #0
     368:	03431ff0 	movteq	r1, #16368	; 0x3ff0
     36c:	e1c720d8 	ldrd	r2, [r7, #8]
            
        }
    }
}

void findDigit(int whichDigit){
     370:	e2888004 	add	r8, r8, #4
     374:	e14a00f8 	strd	r0, [r10, #-8]
     378:	e2899020 	add	r9, r9, #32
                z1[j][0]+=finalW1L1[j][i];
            }
        }
    }
    for(i=0;i<200;i++){
        z1[i][0]+=finalB1L1[i][0];
     37c:	e14901d8 	ldrd	r0, [r9, #-24]	; 0xffffffe8
     380:	e2877020 	add	r7, r7, #32
     384:	eb000581 	bl	1990 <__adddf3>
     388:	e3a02000 	mov	r2, #0
     38c:	e3a03000 	mov	r3, #0
     390:	eb0007e2 	bl	2320 <__aeabi_dcmplt>
     394:	e3500000 	cmp	r0, #0
     398:	e14901d0 	ldrd	r0, [r9, #-16]
     39c:	03435ff0 	movteq	r5, #16368	; 0x3ff0
     3a0:	e14721d0 	ldrd	r2, [r7, #-16]
     3a4:	e14941f8 	strd	r4, [r9, #-24]	; 0xffffffe8
     3a8:	e3a05000 	mov	r5, #0
     3ac:	eb000577 	bl	1990 <__adddf3>
     3b0:	e3a02000 	mov	r2, #0
     3b4:	e3a03000 	mov	r3, #0
     3b8:	eb0007d8 	bl	2320 <__aeabi_dcmplt>
     3bc:	e3500000 	cmp	r0, #0
     3c0:	e3a04000 	mov	r4, #0
     3c4:	03435ff0 	movteq	r5, #16368	; 0x3ff0
     3c8:	e14720d8 	ldrd	r2, [r7, #-8]
     3cc:	e14900d8 	ldrd	r0, [r9, #-8]
     3d0:	e28aa020 	add	r10, r10, #32
     3d4:	e14941f0 	strd	r4, [r9, #-16]
     3d8:	eb00056c 	bl	1990 <__adddf3>
     3dc:	e3a02000 	mov	r2, #0
     3e0:	e3a03000 	mov	r3, #0
     3e4:	eb0007cd 	bl	2320 <__aeabi_dcmplt>
     3e8:	e3a03000 	mov	r3, #0
     3ec:	e3500000 	cmp	r0, #0
     3f0:	03433ff0 	movteq	r3, #16368	; 0x3ff0
     3f4:	e35800c4 	cmp	r8, #196	; 0xc4
     3f8:	e3a02000 	mov	r2, #0
     3fc:	e14920f8 	strd	r2, [r9, #-8]
            
        }
    }
}

void findDigit(int whichDigit){
     400:	e26830c8 	rsb	r3, r8, #200	; 0xc8
     404:	1affffca 	bne	334 <findDigit+0x8c>
     408:	e59f87dc 	ldr	r8, [pc, #2012]	; bec <findDigit+0x944>
     40c:	e28d5d1b 	add	r5, sp, #1728	; 0x6c0
     410:	e1a07183 	lsl	r7, r3, #3
     414:	e3a04000 	mov	r4, #0
     418:	e2855008 	add	r5, r5, #8
                z1[j][0]+=finalW1L1[j][i];
            }
        }
    }
    for(i=0;i<200;i++){
        z1[i][0]+=finalB1L1[i][0];
     41c:	e18820d4 	ldrd	r2, [r8, r4]
     420:	e085a004 	add	r10, r5, r4
     424:	e18500d4 	ldrd	r0, [r5, r4]
     428:	e2844008 	add	r4, r4, #8
     42c:	eb000557 	bl	1990 <__adddf3>
     430:	e3a02000 	mov	r2, #0
     434:	e3a03000 	mov	r3, #0
     438:	eb0007b8 	bl	2320 <__aeabi_dcmplt>
     43c:	e3500000 	cmp	r0, #0
     440:	e3a03000 	mov	r3, #0
     444:	03a03000 	moveq	r3, #0
     448:	e3a02000 	mov	r2, #0
     44c:	03433ff0 	movteq	r3, #16368	; 0x3ff0
     450:	03a02000 	moveq	r2, #0
            for(j=0;j<200;j++){
                z1[j][0]+=finalW1L1[j][i];
            }
        }
    }
    for(i=0;i<200;i++){
     454:	e1540007 	cmp	r4, r7
     458:	e1ca20f0 	strd	r2, [r10]
     45c:	1affffee 	bne	41c <findDigit+0x174>
     460:	e59f9788 	ldr	r9, [pc, #1928]	; bf0 <findDigit+0x948>
     464:	e3a0a000 	mov	r10, #0
	
    //z2
	//time2 = getCycles();
    sum=0.0;
    for(i=0;i<200;i++){
        if(z1[i][0]==1){
     468:	e3a03000 	mov	r3, #0
     46c:	e18600da 	ldrd	r0, [r6, r10]
     470:	e3a02000 	mov	r2, #0
     474:	e3433ff0 	movt	r3, #16368	; 0x3ff0
     478:	eb0007a2 	bl	2308 <__aeabi_dcmpeq>
     47c:	e3500000 	cmp	r0, #0
     480:	0a00000b 	beq	4b4 <findDigit+0x20c>
            
        }
    }
}

void findDigit(int whichDigit){
     484:	e28d8ed2 	add	r8, sp, #3360	; 0xd20
     488:	e1a0400b 	mov	r4, r11
     48c:	e2888008 	add	r8, r8, #8
     490:	e3a05000 	mov	r5, #0
     494:	e089700a 	add	r7, r9, r10
	//time2 = getCycles();
    sum=0.0;
    for(i=0;i<200;i++){
        if(z1[i][0]==1){
            for(j=0;j<200;j++){
                z2[j][0]+=finalW1L2[j][i];
     498:	e1c400d0 	ldrd	r0, [r4]
     49c:	e18720d5 	ldrd	r2, [r7, r5]
     4a0:	e2855d19 	add	r5, r5, #1600	; 0x640
     4a4:	eb000539 	bl	1990 <__adddf3>
     4a8:	e0c400f8 	strd	r0, [r4], #8
    //z2
	//time2 = getCycles();
    sum=0.0;
    for(i=0;i<200;i++){
        if(z1[i][0]==1){
            for(j=0;j<200;j++){
     4ac:	e1540008 	cmp	r4, r8
     4b0:	1afffff8 	bne	498 <findDigit+0x1f0>
     4b4:	e28aa008 	add	r10, r10, #8
	//printf ("Elapsed time stigmoid: %d cycles\n", time2 - OH2);
	
    //z2
	//time2 = getCycles();
    sum=0.0;
    for(i=0;i<200;i++){
     4b8:	e35a0d19 	cmp	r10, #1600	; 0x640
     4bc:	1affffe9 	bne	468 <findDigit+0x1c0>
     4c0:	e59f672c 	ldr	r6, [pc, #1836]	; bf4 <findDigit+0x94c>
     4c4:	e1a0a00b 	mov	r10, r11
     4c8:	e28b8008 	add	r8, r11, #8
     4cc:	e3a07000 	mov	r7, #0
            
        }
    }
}

void findDigit(int whichDigit){
     4d0:	e08bc187 	add	r12, r11, r7, lsl #3
            }
        }
    }
	
    for(i=0;i<200;i++){
        z2[i][0]+=finalB1L2[i][0];
     4d4:	e14800d8 	ldrd	r0, [r8, #-8]
     4d8:	e1c620d0 	ldrd	r2, [r6]
     4dc:	e3a05000 	mov	r5, #0
     4e0:	f5dcf080 	pld	[r12, #128]	; 0x80
     4e4:	e3a04000 	mov	r4, #0
     4e8:	eb000528 	bl	1990 <__adddf3>
     4ec:	e3a02000 	mov	r2, #0
     4f0:	e3a03000 	mov	r3, #0
     4f4:	eb000789 	bl	2320 <__aeabi_dcmplt>
     4f8:	e3a01000 	mov	r1, #0
     4fc:	e3500000 	cmp	r0, #0
     500:	e3a00000 	mov	r0, #0
     504:	03431ff0 	movteq	r1, #16368	; 0x3ff0
     508:	e1c620d8 	ldrd	r2, [r6, #8]
            
        }
    }
}

void findDigit(int whichDigit){
     50c:	e2877004 	add	r7, r7, #4
     510:	e14800f8 	strd	r0, [r8, #-8]
     514:	e28aa020 	add	r10, r10, #32
            }
        }
    }
	
    for(i=0;i<200;i++){
        z2[i][0]+=finalB1L2[i][0];
     518:	e14a01d8 	ldrd	r0, [r10, #-24]	; 0xffffffe8
     51c:	e2866020 	add	r6, r6, #32
     520:	eb00051a 	bl	1990 <__adddf3>
     524:	e3a02000 	mov	r2, #0
     528:	e3a03000 	mov	r3, #0
     52c:	eb00077b 	bl	2320 <__aeabi_dcmplt>
     530:	e3500000 	cmp	r0, #0
     534:	e14a01d0 	ldrd	r0, [r10, #-16]
     538:	03435ff0 	movteq	r5, #16368	; 0x3ff0
     53c:	e14621d0 	ldrd	r2, [r6, #-16]
     540:	e14a41f8 	strd	r4, [r10, #-24]	; 0xffffffe8
     544:	e3a05000 	mov	r5, #0
     548:	eb000510 	bl	1990 <__adddf3>
     54c:	e3a02000 	mov	r2, #0
     550:	e3a03000 	mov	r3, #0
     554:	eb000771 	bl	2320 <__aeabi_dcmplt>
     558:	e3500000 	cmp	r0, #0
     55c:	e3a04000 	mov	r4, #0
     560:	03435ff0 	movteq	r5, #16368	; 0x3ff0
     564:	e14620d8 	ldrd	r2, [r6, #-8]
     568:	e14a00d8 	ldrd	r0, [r10, #-8]
     56c:	e2888020 	add	r8, r8, #32
     570:	e14a41f0 	strd	r4, [r10, #-16]
     574:	eb000505 	bl	1990 <__adddf3>
     578:	e3a02000 	mov	r2, #0
     57c:	e3a03000 	mov	r3, #0
     580:	eb000766 	bl	2320 <__aeabi_dcmplt>
     584:	e3a03000 	mov	r3, #0
     588:	e3500000 	cmp	r0, #0
     58c:	03433ff0 	movteq	r3, #16368	; 0x3ff0
     590:	e35700c4 	cmp	r7, #196	; 0xc4
     594:	e3a02000 	mov	r2, #0
     598:	e14a20f8 	strd	r2, [r10, #-8]
            
        }
    }
}

void findDigit(int whichDigit){
     59c:	e26730c8 	rsb	r3, r7, #200	; 0xc8
     5a0:	1affffca 	bne	4d0 <findDigit+0x228>
     5a4:	e59f864c 	ldr	r8, [pc, #1612]	; bf8 <findDigit+0x950>
     5a8:	e28d5c0d 	add	r5, sp, #3328	; 0xd00
     5ac:	e1a07183 	lsl	r7, r3, #3
     5b0:	e3a04000 	mov	r4, #0
     5b4:	e2855008 	add	r5, r5, #8
            }
        }
    }
	
    for(i=0;i<200;i++){
        z2[i][0]+=finalB1L2[i][0];
     5b8:	e18820d4 	ldrd	r2, [r8, r4]
     5bc:	e0856004 	add	r6, r5, r4
     5c0:	e18500d4 	ldrd	r0, [r5, r4]
     5c4:	e2844008 	add	r4, r4, #8
     5c8:	eb0004f0 	bl	1990 <__adddf3>
     5cc:	e3a02000 	mov	r2, #0
     5d0:	e3a03000 	mov	r3, #0
     5d4:	eb000751 	bl	2320 <__aeabi_dcmplt>
     5d8:	e3500000 	cmp	r0, #0
     5dc:	e3a03000 	mov	r3, #0
     5e0:	03a03000 	moveq	r3, #0
     5e4:	e3a02000 	mov	r2, #0
     5e8:	03433ff0 	movteq	r3, #16368	; 0x3ff0
     5ec:	03a02000 	moveq	r2, #0
                z2[j][0]+=finalW1L2[j][i];
            }
        }
    }
	
    for(i=0;i<200;i++){
     5f0:	e1540007 	cmp	r4, r7
     5f4:	e1c620f0 	strd	r2, [r6]
     5f8:	1affffee 	bne	5b8 <findDigit+0x310>
     5fc:	e28d9ed2 	add	r9, sp, #3360	; 0xd20
     600:	e30f4330 	movw	r4, #62256	; 0xf330
     604:	e2899008 	add	r9, r9, #8
     608:	e34f4fff 	movt	r4, #65535	; 0xffff
	//time2 = getCycles();
    sum=0.0;
    for(i=0;i<200;i++){
        if(z2[i][0]==1){
            for(j=0;j<10;j++){
                z3[j][0]=z3[j][0]+finalSoftmaxTheta[j][i];
     60c:	e30f7338 	movw	r7, #62264	; 0xf338
     610:	e30f5340 	movw	r5, #62272	; 0xf340
     614:	e18980d4 	ldrd	r8, [r9, r4]
     618:	e34f7fff 	movt	r7, #65535	; 0xffff
     61c:	e34f5fff 	movt	r5, #65535	; 0xffff
     620:	e30f6348 	movw	r6, #62280	; 0xf348
     624:	e34f6fff 	movt	r6, #65535	; 0xffff
     628:	e30fc358 	movw	r12, #62296	; 0xf358
     62c:	e1cd80f8 	strd	r8, [sp, #8]
     630:	e28d9ed2 	add	r9, sp, #3360	; 0xd20
     634:	e2899008 	add	r9, r9, #8
     638:	e34fcfff 	movt	r12, #65535	; 0xffff
     63c:	e30fe350 	movw	lr, #62288	; 0xf350
     640:	e30f1368 	movw	r1, #62312	; 0xf368
     644:	e18980d7 	ldrd	r8, [r9, r7]
     648:	e34fefff 	movt	lr, #65535	; 0xffff
     64c:	e34f1fff 	movt	r1, #65535	; 0xffff
     650:	e30f0360 	movw	r0, #62304	; 0xf360
     654:	e34f0fff 	movt	r0, #65535	; 0xffff
     658:	e30f3378 	movw	r3, #62328	; 0xf378
     65c:	e1cd83f0 	strd	r8, [sp, #48]	; 0x30
     660:	e28d9ed2 	add	r9, sp, #3360	; 0xd20
     664:	e2899008 	add	r9, r9, #8
     668:	e34f3fff 	movt	r3, #65535	; 0xffff
     66c:	e30f2370 	movw	r2, #62320	; 0xf370
                z2[j][0]+=finalW1L2[j][i];
            }
        }
    }
	
    for(i=0;i<200;i++){
     670:	e3a0a000 	mov	r10, #0
     674:	e18980d5 	ldrd	r8, [r9, r5]
     678:	e28d5ed2 	add	r5, sp, #3360	; 0xd20
     67c:	e2855008 	add	r5, r5, #8
	//time2 = getCycles();
    sum=0.0;
    for(i=0;i<200;i++){
        if(z2[i][0]==1){
            for(j=0;j<10;j++){
                z3[j][0]=z3[j][0]+finalSoftmaxTheta[j][i];
     680:	e34f2fff 	movt	r2, #65535	; 0xffff
     684:	e18540d6 	ldrd	r4, [r5, r6]
     688:	e1a0600a 	mov	r6, r10
     68c:	e1cd82f8 	strd	r8, [sp, #40]	; 0x28
     690:	e28d9ed2 	add	r9, sp, #3360	; 0xd20
     694:	e2899008 	add	r9, r9, #8
     698:	e1cd42f0 	strd	r4, [sp, #32]
     69c:	e28d5ed2 	add	r5, sp, #3360	; 0xd20
     6a0:	e2855008 	add	r5, r5, #8
     6a4:	e18980de 	ldrd	r8, [r9, lr]
     6a8:	e18540dc 	ldrd	r4, [r5, r12]
     6ac:	e1cd81f8 	strd	r8, [sp, #24]
     6b0:	e28d9ed2 	add	r9, sp, #3360	; 0xd20
     6b4:	e2899008 	add	r9, r9, #8
     6b8:	e1cd44f0 	strd	r4, [sp, #64]	; 0x40
     6bc:	e28d5ed2 	add	r5, sp, #3360	; 0xd20
     6c0:	e2855008 	add	r5, r5, #8
     6c4:	e18980d0 	ldrd	r8, [r9, r0]
     6c8:	e18540d1 	ldrd	r4, [r5, r1]
     6cc:	e1cd83f8 	strd	r8, [sp, #56]	; 0x38
     6d0:	e28d9ed2 	add	r9, sp, #3360	; 0xd20
     6d4:	e2899008 	add	r9, r9, #8
     6d8:	e1cd41f0 	strd	r4, [sp, #16]
     6dc:	e28d5ed2 	add	r5, sp, #3360	; 0xd20
     6e0:	e2855008 	add	r5, r5, #8
     6e4:	e18980d2 	ldrd	r8, [r9, r2]
     6e8:	e18540d3 	ldrd	r4, [r5, r3]
     6ec:	e1cd84f8 	strd	r8, [sp, #72]	; 0x48
     6f0:	e59f8504 	ldr	r8, [pc, #1284]	; bfc <findDigit+0x954>
     6f4:	e1cd45f0 	strd	r4, [sp, #80]	; 0x50
     6f8:	e1cd40d8 	ldrd	r4, [sp, #8]
            
        }
    }
}

void findDigit(int whichDigit){
     6fc:	e08be18a 	add	lr, r11, r10, lsl #3
    //printf ("Elapsed time stigmoid: %d cycles\n", time2 - OH2);
    //z3
	//time2 = getCycles();
    sum=0.0;
    for(i=0;i<200;i++){
        if(z2[i][0]==1){
     700:	e3a03000 	mov	r3, #0
     704:	e18b00d6 	ldrd	r0, [r11, r6]
     708:	e3a02000 	mov	r2, #0
     70c:	e3433ff0 	movt	r3, #16368	; 0x3ff0
     710:	f5def030 	pld	[lr, #48]	; 0x30
     714:	eb0006fb 	bl	2308 <__aeabi_dcmpeq>
     718:	e3500000 	cmp	r0, #0
            for(j=0;j<10;j++){
                z3[j][0]=z3[j][0]+finalSoftmaxTheta[j][i];
     71c:	e1a09008 	mov	r9, r8
     720:	e28aa001 	add	r10, r10, #1
     724:	e1a00004 	mov	r0, r4
     728:	e1a01005 	mov	r1, r5
    //printf ("Elapsed time stigmoid: %d cycles\n", time2 - OH2);
    //z3
	//time2 = getCycles();
    sum=0.0;
    for(i=0;i<200;i++){
        if(z2[i][0]==1){
     72c:	0a000030 	beq	7f4 <findDigit+0x54c>
            for(j=0;j<10;j++){
                z3[j][0]=z3[j][0]+finalSoftmaxTheta[j][i];
     730:	e1a920d6 	ldrd	r2, [r9, r6]!
     734:	eb000495 	bl	1990 <__adddf3>
     738:	e1a04000 	mov	r4, r0
     73c:	e1a05001 	mov	r5, r1
            
        }
    }
}

void findDigit(int whichDigit){
     740:	e2893d19 	add	r3, r9, #1600	; 0x640
	//time2 = getCycles();
    sum=0.0;
    for(i=0;i<200;i++){
        if(z2[i][0]==1){
            for(j=0;j<10;j++){
                z3[j][0]=z3[j][0]+finalSoftmaxTheta[j][i];
     744:	e1cd03d0 	ldrd	r0, [sp, #48]	; 0x30
     748:	e1c320d0 	ldrd	r2, [r3]
     74c:	eb00048f 	bl	1990 <__adddf3>
            
        }
    }
}

void findDigit(int whichDigit){
     750:	e2893d32 	add	r3, r9, #3200	; 0xc80
	//time2 = getCycles();
    sum=0.0;
    for(i=0;i<200;i++){
        if(z2[i][0]==1){
            for(j=0;j<10;j++){
                z3[j][0]=z3[j][0]+finalSoftmaxTheta[j][i];
     754:	e1cd03f0 	strd	r0, [sp, #48]	; 0x30
     758:	e1cd02d8 	ldrd	r0, [sp, #40]	; 0x28
     75c:	e1c320d0 	ldrd	r2, [r3]
     760:	eb00048a 	bl	1990 <__adddf3>
            
        }
    }
}

void findDigit(int whichDigit){
     764:	e2893d4b 	add	r3, r9, #4800	; 0x12c0
	//time2 = getCycles();
    sum=0.0;
    for(i=0;i<200;i++){
        if(z2[i][0]==1){
            for(j=0;j<10;j++){
                z3[j][0]=z3[j][0]+finalSoftmaxTheta[j][i];
     768:	e1cd02f8 	strd	r0, [sp, #40]	; 0x28
     76c:	e1cd02d0 	ldrd	r0, [sp, #32]
     770:	e1c320d0 	ldrd	r2, [r3]
     774:	eb000485 	bl	1990 <__adddf3>
            
        }
    }
}

void findDigit(int whichDigit){
     778:	e2893c19 	add	r3, r9, #6400	; 0x1900
	//time2 = getCycles();
    sum=0.0;
    for(i=0;i<200;i++){
        if(z2[i][0]==1){
            for(j=0;j<10;j++){
                z3[j][0]=z3[j][0]+finalSoftmaxTheta[j][i];
     77c:	e1cd02f0 	strd	r0, [sp, #32]
     780:	e1cd01d8 	ldrd	r0, [sp, #24]
     784:	e1c320d0 	ldrd	r2, [r3]
     788:	eb000480 	bl	1990 <__adddf3>
            
        }
    }
}

void findDigit(int whichDigit){
     78c:	e2893d7d 	add	r3, r9, #8000	; 0x1f40
	//time2 = getCycles();
    sum=0.0;
    for(i=0;i<200;i++){
        if(z2[i][0]==1){
            for(j=0;j<10;j++){
                z3[j][0]=z3[j][0]+finalSoftmaxTheta[j][i];
     790:	e1cd01f8 	strd	r0, [sp, #24]
     794:	e1cd04d0 	ldrd	r0, [sp, #64]	; 0x40
     798:	e1c320d0 	ldrd	r2, [r3]
     79c:	eb00047b 	bl	1990 <__adddf3>
            
        }
    }
}

void findDigit(int whichDigit){
     7a0:	e2893d96 	add	r3, r9, #9600	; 0x2580
	//time2 = getCycles();
    sum=0.0;
    for(i=0;i<200;i++){
        if(z2[i][0]==1){
            for(j=0;j<10;j++){
                z3[j][0]=z3[j][0]+finalSoftmaxTheta[j][i];
     7a4:	e1cd04f0 	strd	r0, [sp, #64]	; 0x40
     7a8:	e1cd03d8 	ldrd	r0, [sp, #56]	; 0x38
     7ac:	e1c320d0 	ldrd	r2, [r3]
     7b0:	eb000476 	bl	1990 <__adddf3>
            
        }
    }
}

void findDigit(int whichDigit){
     7b4:	e2893daf 	add	r3, r9, #11200	; 0x2bc0
	//time2 = getCycles();
    sum=0.0;
    for(i=0;i<200;i++){
        if(z2[i][0]==1){
            for(j=0;j<10;j++){
                z3[j][0]=z3[j][0]+finalSoftmaxTheta[j][i];
     7b8:	e1cd03f8 	strd	r0, [sp, #56]	; 0x38
     7bc:	e1cd01d0 	ldrd	r0, [sp, #16]
     7c0:	e1c320d0 	ldrd	r2, [r3]
     7c4:	eb000471 	bl	1990 <__adddf3>
            
        }
    }
}

void findDigit(int whichDigit){
     7c8:	e2893c32 	add	r3, r9, #12800	; 0x3200
	//time2 = getCycles();
    sum=0.0;
    for(i=0;i<200;i++){
        if(z2[i][0]==1){
            for(j=0;j<10;j++){
                z3[j][0]=z3[j][0]+finalSoftmaxTheta[j][i];
     7cc:	e1cd01f0 	strd	r0, [sp, #16]
            
        }
    }
}

void findDigit(int whichDigit){
     7d0:	e2899de1 	add	r9, r9, #14400	; 0x3840
	//time2 = getCycles();
    sum=0.0;
    for(i=0;i<200;i++){
        if(z2[i][0]==1){
            for(j=0;j<10;j++){
                z3[j][0]=z3[j][0]+finalSoftmaxTheta[j][i];
     7d4:	e1cd04d8 	ldrd	r0, [sp, #72]	; 0x48
     7d8:	e1c320d0 	ldrd	r2, [r3]
     7dc:	eb00046b 	bl	1990 <__adddf3>
     7e0:	e1cd04f8 	strd	r0, [sp, #72]	; 0x48
     7e4:	e1cd05d0 	ldrd	r0, [sp, #80]	; 0x50
     7e8:	e1c920d0 	ldrd	r2, [r9]
     7ec:	eb000467 	bl	1990 <__adddf3>
     7f0:	e1cd05f0 	strd	r0, [sp, #80]	; 0x50
	//time2 = getCycles() - time2;
    //printf ("Elapsed time stigmoid: %d cycles\n", time2 - OH2);
    //z3
	//time2 = getCycles();
    sum=0.0;
    for(i=0;i<200;i++){
     7f4:	e35a00c8 	cmp	r10, #200	; 0xc8
     7f8:	e2866008 	add	r6, r6, #8
     7fc:	1affffbe 	bne	6fc <findDigit+0x454>
     800:	e1cd40f8 	strd	r4, [sp, #8]
     804:	e1a00004 	mov	r0, r4
     808:	e1a01005 	mov	r1, r5
     80c:	e1cd43d0 	ldrd	r4, [sp, #48]	; 0x30
     810:	e30f6360 	movw	r6, #62304	; 0xf360
     814:	e30fb338 	movw	r11, #62264	; 0xf338
     818:	e34f6fff 	movt	r6, #65535	; 0xffff
     81c:	e34fbfff 	movt	r11, #65535	; 0xffff
     820:	e58d6004 	str	r6, [sp, #4]
     824:	e28d6ed2 	add	r6, sp, #3360	; 0xd20
     828:	e2866008 	add	r6, r6, #8
     82c:	e30f9340 	movw	r9, #62272	; 0xf340
     830:	e18640fb 	strd	r4, [r6, r11]
     834:	e34f9fff 	movt	r9, #65535	; 0xffff
     838:	e1cd42d8 	ldrd	r4, [sp, #40]	; 0x28
     83c:	e30fa348 	movw	r10, #62280	; 0xf348
     840:	e34fafff 	movt	r10, #65535	; 0xffff
     844:	e30f8350 	movw	r8, #62288	; 0xf350
     848:	e34f8fff 	movt	r8, #65535	; 0xffff
     84c:	e30f7358 	movw	r7, #62296	; 0xf358
     850:	e18640f9 	strd	r4, [r6, r9]
     854:	e34f7fff 	movt	r7, #65535	; 0xffff
     858:	e30fe368 	movw	lr, #62312	; 0xf368
     85c:	e30fc370 	movw	r12, #62320	; 0xf370
     860:	e1cd42d0 	ldrd	r4, [sp, #32]
     864:	e34fefff 	movt	lr, #65535	; 0xffff
     868:	e34fcfff 	movt	r12, #65535	; 0xffff
     86c:	e30d3784 	movw	r3, #55172	; 0xd784
     870:	e3a02000 	mov	r2, #0
     874:	e34c3197 	movt	r3, #49559	; 0xc197
     878:	e18640fa 	strd	r4, [r6, r10]
     87c:	e1a0a006 	mov	r10, r6
     880:	e1cd41d8 	ldrd	r4, [sp, #24]
     884:	e18640f8 	strd	r4, [r6, r8]
     888:	e1cd84d0 	ldrd	r8, [sp, #64]	; 0x40
     88c:	e1cd43d8 	ldrd	r4, [sp, #56]	; 0x38
     890:	e18680f7 	strd	r8, [r6, r7]
     894:	e59d6004 	ldr	r6, [sp, #4]
     898:	e1cd81d0 	ldrd	r8, [sp, #16]
     89c:	e18a40f6 	strd	r4, [r10, r6]
     8a0:	e1a0600a 	mov	r6, r10
     8a4:	e1cd44d8 	ldrd	r4, [sp, #72]	; 0x48
     8a8:	e18a80fe 	strd	r8, [r10, lr]
     8ac:	e18a40fc 	strd	r4, [r10, r12]
     8b0:	eb0006ac 	bl	2368 <__aeabi_dcmpgt>
     8b4:	e3500000 	cmp	r0, #0
     8b8:	0a0000c4 	beq	bd0 <findDigit+0x928>
     8bc:	e1cd80d8 	ldrd	r8, [sp, #8]
     8c0:	e1a00008 	mov	r0, r8
     8c4:	e1a01009 	mov	r1, r9
     8c8:	e30d3784 	movw	r3, #55172	; 0xd784
     8cc:	e3a02000 	mov	r2, #0
     8d0:	e34c3197 	movt	r3, #49559	; 0xc197
    int number=0;
	//time2 = getCycles();
    for (i=0; i<10; i++) {
        //z2[i][0]=1.0/(1.0+exp(-(z2[i][0]+finalB1L2[i][0])));
        //printf("%f\n",z3[i][0]);
        if (z3[i][0]>max) {
     8d4:	e28d7ed2 	add	r7, sp, #3360	; 0xd20
     8d8:	eb0006a2 	bl	2368 <__aeabi_dcmpgt>
     8dc:	e30f3338 	movw	r3, #62264	; 0xf338
     8e0:	e2877008 	add	r7, r7, #8
     8e4:	e34f3fff 	movt	r3, #65535	; 0xffff
     8e8:	e290a000 	adds	r10, r0, #0
     8ec:	e18740d3 	ldrd	r4, [r7, r3]
     8f0:	e1a01009 	mov	r1, r9
     8f4:	e1a00008 	mov	r0, r8
     8f8:	13a0a001 	movne	r10, #1
     8fc:	e1a02004 	mov	r2, r4
     900:	e1a03005 	mov	r3, r5
     904:	eb000685 	bl	2320 <__aeabi_dcmplt>
     908:	e1a02004 	mov	r2, r4
     90c:	e1a03005 	mov	r3, r5
     910:	e3500000 	cmp	r0, #0
     914:	e1a01009 	mov	r1, r9
     918:	e1a00008 	mov	r0, r8
     91c:	01a07009 	moveq	r7, r9
     920:	11a07005 	movne	r7, r5
     924:	11a06004 	movne	r6, r4
     928:	01a06008 	moveq	r6, r8
     92c:	eb00067b 	bl	2320 <__aeabi_dcmplt>
     930:	e30f3340 	movw	r3, #62272	; 0xf340
     934:	e28dced2 	add	r12, sp, #3360	; 0xd20
     938:	e28cc008 	add	r12, r12, #8
     93c:	e34f3fff 	movt	r3, #65535	; 0xffff
     940:	e18c80d3 	ldrd	r8, [r12, r3]
     944:	e1a01007 	mov	r1, r7
     948:	e3500000 	cmp	r0, #0
     94c:	e1a00006 	mov	r0, r6
     950:	13a0a002 	movne	r10, #2
     954:	e1a02008 	mov	r2, r8
     958:	e1a03009 	mov	r3, r9
     95c:	eb00066f 	bl	2320 <__aeabi_dcmplt>
     960:	e1a01007 	mov	r1, r7
     964:	e3500000 	cmp	r0, #0
     968:	e1a02008 	mov	r2, r8
     96c:	e1a00006 	mov	r0, r6
     970:	e1a03009 	mov	r3, r9
     974:	01a04006 	moveq	r4, r6
     978:	01a05007 	moveq	r5, r7
     97c:	11a04008 	movne	r4, r8
     980:	11a05009 	movne	r5, r9
     984:	eb000665 	bl	2320 <__aeabi_dcmplt>
     988:	e30f3348 	movw	r3, #62280	; 0xf348
     98c:	e28deed2 	add	lr, sp, #3360	; 0xd20
     990:	e28ee008 	add	lr, lr, #8
     994:	e34f3fff 	movt	r3, #65535	; 0xffff
     998:	e18e80d3 	ldrd	r8, [lr, r3]
     99c:	e1a01005 	mov	r1, r5
     9a0:	e3500000 	cmp	r0, #0
     9a4:	e1a00004 	mov	r0, r4
     9a8:	13a0a003 	movne	r10, #3
     9ac:	e1a02008 	mov	r2, r8
     9b0:	e1a03009 	mov	r3, r9
     9b4:	eb000659 	bl	2320 <__aeabi_dcmplt>
     9b8:	e1a01005 	mov	r1, r5
     9bc:	e3500000 	cmp	r0, #0
     9c0:	e1a02008 	mov	r2, r8
     9c4:	e1a00004 	mov	r0, r4
     9c8:	e1a03009 	mov	r3, r9
     9cc:	01a07005 	moveq	r7, r5
     9d0:	11a07009 	movne	r7, r9
     9d4:	01a06004 	moveq	r6, r4
     9d8:	11a06008 	movne	r6, r8
     9dc:	eb00064f 	bl	2320 <__aeabi_dcmplt>
     9e0:	e30f3350 	movw	r3, #62288	; 0xf350
     9e4:	e28d2ed2 	add	r2, sp, #3360	; 0xd20
     9e8:	e34f3fff 	movt	r3, #65535	; 0xffff
     9ec:	e2822008 	add	r2, r2, #8
     9f0:	e18280d3 	ldrd	r8, [r2, r3]
     9f4:	e1a01007 	mov	r1, r7
     9f8:	e3500000 	cmp	r0, #0
     9fc:	e1a00006 	mov	r0, r6
     a00:	13a0a004 	movne	r10, #4
     a04:	e1a02008 	mov	r2, r8
     a08:	e1a03009 	mov	r3, r9
     a0c:	eb000643 	bl	2320 <__aeabi_dcmplt>
     a10:	e1a01007 	mov	r1, r7
     a14:	e3500000 	cmp	r0, #0
     a18:	e1a02008 	mov	r2, r8
     a1c:	e1a03009 	mov	r3, r9
     a20:	e1a00006 	mov	r0, r6
     a24:	01a04006 	moveq	r4, r6
     a28:	01a05007 	moveq	r5, r7
     a2c:	11a04008 	movne	r4, r8
     a30:	11a05009 	movne	r5, r9
     a34:	e28d6ed2 	add	r6, sp, #3360	; 0xd20
     a38:	eb000638 	bl	2320 <__aeabi_dcmplt>
     a3c:	e30f3358 	movw	r3, #62296	; 0xf358
     a40:	e2866008 	add	r6, r6, #8
     a44:	e34f3fff 	movt	r3, #65535	; 0xffff
     a48:	e1a01005 	mov	r1, r5
     a4c:	e18680d3 	ldrd	r8, [r6, r3]
     a50:	e3500000 	cmp	r0, #0
     a54:	e1a00004 	mov	r0, r4
     a58:	13a0a005 	movne	r10, #5
     a5c:	e1a02008 	mov	r2, r8
     a60:	e1a03009 	mov	r3, r9
     a64:	eb00062d 	bl	2320 <__aeabi_dcmplt>
     a68:	e1a01005 	mov	r1, r5
     a6c:	e3500000 	cmp	r0, #0
     a70:	e1a02008 	mov	r2, r8
     a74:	e1a00004 	mov	r0, r4
     a78:	e1a03009 	mov	r3, r9
     a7c:	01a06004 	moveq	r6, r4
     a80:	01a07005 	moveq	r7, r5
     a84:	11a06008 	movne	r6, r8
     a88:	11a07009 	movne	r7, r9
     a8c:	eb000623 	bl	2320 <__aeabi_dcmplt>
     a90:	e30f3360 	movw	r3, #62304	; 0xf360
     a94:	e28dced2 	add	r12, sp, #3360	; 0xd20
     a98:	e28cc008 	add	r12, r12, #8
     a9c:	e34f3fff 	movt	r3, #65535	; 0xffff
     aa0:	e18c80d3 	ldrd	r8, [r12, r3]
     aa4:	e3500000 	cmp	r0, #0
     aa8:	e1a01007 	mov	r1, r7
     aac:	e1a00006 	mov	r0, r6
     ab0:	13a0a006 	movne	r10, #6
     ab4:	e1a02008 	mov	r2, r8
     ab8:	e1a03009 	mov	r3, r9
     abc:	eb000617 	bl	2320 <__aeabi_dcmplt>
     ac0:	e1a01007 	mov	r1, r7
     ac4:	e3500000 	cmp	r0, #0
     ac8:	e1a02008 	mov	r2, r8
     acc:	e1a00006 	mov	r0, r6
     ad0:	e1a03009 	mov	r3, r9
     ad4:	11a04008 	movne	r4, r8
     ad8:	11a05009 	movne	r5, r9
     adc:	01a04006 	moveq	r4, r6
     ae0:	01a05007 	moveq	r5, r7
     ae4:	eb00060d 	bl	2320 <__aeabi_dcmplt>
     ae8:	e30f3368 	movw	r3, #62312	; 0xf368
     aec:	e28deed2 	add	lr, sp, #3360	; 0xd20
     af0:	e28ee008 	add	lr, lr, #8
     af4:	e34f3fff 	movt	r3, #65535	; 0xffff
     af8:	e18e80d3 	ldrd	r8, [lr, r3]
     afc:	e3500000 	cmp	r0, #0
     b00:	e1a01005 	mov	r1, r5
     b04:	e1a00004 	mov	r0, r4
     b08:	13a0a007 	movne	r10, #7
     b0c:	e1a02008 	mov	r2, r8
     b10:	e1a03009 	mov	r3, r9
     b14:	eb000601 	bl	2320 <__aeabi_dcmplt>
     b18:	e1a02008 	mov	r2, r8
     b1c:	e3500000 	cmp	r0, #0
     b20:	e1a01005 	mov	r1, r5
     b24:	e1a00004 	mov	r0, r4
     b28:	e1a03009 	mov	r3, r9
     b2c:	11a06008 	movne	r6, r8
     b30:	01a06004 	moveq	r6, r4
     b34:	01a07005 	moveq	r7, r5
     b38:	11a07009 	movne	r7, r9
     b3c:	eb0005f7 	bl	2320 <__aeabi_dcmplt>
     b40:	e30f3370 	movw	r3, #62320	; 0xf370
     b44:	e28d2ed2 	add	r2, sp, #3360	; 0xd20
     b48:	e34f3fff 	movt	r3, #65535	; 0xffff
     b4c:	e2822008 	add	r2, r2, #8
     b50:	e18240d3 	ldrd	r4, [r2, r3]
     b54:	e3500000 	cmp	r0, #0
     b58:	e1a01007 	mov	r1, r7
     b5c:	e1a00006 	mov	r0, r6
     b60:	01a0800a 	moveq	r8, r10
     b64:	13a08008 	movne	r8, #8
     b68:	e1a02004 	mov	r2, r4
     b6c:	e1a03005 	mov	r3, r5
     b70:	eb0005ea 	bl	2320 <__aeabi_dcmplt>
     b74:	e3500000 	cmp	r0, #0
     b78:	13a08009 	movne	r8, #9
     b7c:	e3500000 	cmp	r0, #0
     b80:	11a02004 	movne	r2, r4
     b84:	11a03005 	movne	r3, r5
     b88:	01a02006 	moveq	r2, r6
     b8c:	01a03007 	moveq	r3, r7
     b90:	e1cd05d0 	ldrd	r0, [sp, #80]	; 0x50
     b94:	eb0005f3 	bl	2368 <__aeabi_dcmpgt>
        number=0;
    }
    //printf("digit %d = %d\n",whichDigit,number);
	
	//printf("%d",number);
    finalDigitToPrint=finalDigitToPrint*10+number;
     b98:	e30a3d5c 	movw	r3, #44380	; 0xad5c
     b9c:	e3500000 	cmp	r0, #0
     ba0:	e3403019 	movt	r3, #25
     ba4:	01a00008 	moveq	r0, r8
     ba8:	e5932620 	ldr	r2, [r3, #1568]	; 0x620
     bac:	13a0000a 	movne	r0, #10
        }
    }
	//time2 = getCycles() - time2;
	//printf ("Elapsed time finding digit: %d cycles\n", time2 - OH2);
    if (number==10) {
        number=0;
     bb0:	e350000a 	cmp	r0, #10
     bb4:	03a00000 	moveq	r0, #0
    }
    //printf("digit %d = %d\n",whichDigit,number);
	
	//printf("%d",number);
    finalDigitToPrint=finalDigitToPrint*10+number;
     bb8:	e0822102 	add	r2, r2, r2, lsl #2
     bbc:	e0802082 	add	r2, r0, r2, lsl #1
     bc0:	e5832620 	str	r2, [r3, #1568]	; 0x620
}
     bc4:	e28ddf4b 	add	sp, sp, #300	; 0x12c
     bc8:	e28ddb03 	add	sp, sp, #3072	; 0xc00
     bcc:	e8bd8ff0 	pop	{r4, r5, r6, r7, r8, r9, r10, r11, pc}
     bd0:	e30d9784 	movw	r9, #55172	; 0xd784
     bd4:	e3a08000 	mov	r8, #0
     bd8:	e34c9197 	movt	r9, #49559	; 0xc197
     bdc:	e1cd00d8 	ldrd	r0, [sp, #8]
     be0:	eaffff38 	b	8c8 <findDigit+0x620>
     be4:	0019b06b 	.word	0x0019b06b
     be8:	00147708 	.word	0x00147708
     bec:	00147d28 	.word	0x00147d28
     bf0:	00147d48 	.word	0x00147d48
     bf4:	00195f48 	.word	0x00195f48
     bf8:	00196568 	.word	0x00196568
     bfc:	00196588 	.word	0x00196588

00000c00 <sumOfCols>:
int sumOfCols(int leftEdge, int rightEdge, int topEdge, int bottomEdge, int offset){
    int sum=0;
    int i;
    int pixel;
    int row=bottomEdge;
    for (i=0; i<bottomEdge-topEdge; i++) {
     c00:	e0622003 	rsb	r2, r2, r3
     c04:	e3520000 	cmp	r2, #0
     c08:	da000011 	ble	c54 <sumOfCols+0x54>
    finalDigitToPrint=finalDigitToPrint*10+number;
}
//end digit detection

//offset is for which column to calculate
int sumOfCols(int leftEdge, int rightEdge, int topEdge, int bottomEdge, int offset){
     c0c:	e062ca82 	rsb	r12, r2, r2, lsl #21
     c10:	e0831103 	add	r1, r3, r3, lsl #2
     c14:	e59d3000 	ldr	r3, [sp]
     c18:	e062210c 	rsb	r2, r2, r12, lsl #2
     c1c:	e1a0c482 	lsl	r12, r2, #9
     c20:	e59f2034 	ldr	r2, [pc, #52]	; c5c <sumOfCols+0x5c>
     c24:	e0800003 	add	r0, r0, r3
     c28:	e0801381 	add	r1, r0, r1, lsl #7
     c2c:	e3a03000 	mov	r3, #0
    int sum=0;
     c30:	e1a00003 	mov	r0, r3
    finalDigitToPrint=finalDigitToPrint*10+number;
}
//end digit detection

//offset is for which column to calculate
int sumOfCols(int leftEdge, int rightEdge, int topEdge, int bottomEdge, int offset){
     c34:	e0821101 	add	r1, r2, r1, lsl #2
    int row=bottomEdge;
    for (i=0; i<bottomEdge-topEdge; i++) {
        //fread(ptrC,1,1,inputFile);
        //reverse pixel
        pixel=hardImage[row][leftEdge+offset];
        if(pixel==1){
     c38:	e7912003 	ldr	r2, [r1, r3]
     c3c:	e2433c0a 	sub	r3, r3, #2560	; 0xa00
            pixel=0;
        }
        else
            pixel=1;
        sum+=pixel;
     c40:	e3520001 	cmp	r2, #1
     c44:	12800001 	addne	r0, r0, #1
int sumOfCols(int leftEdge, int rightEdge, int topEdge, int bottomEdge, int offset){
    int sum=0;
    int i;
    int pixel;
    int row=bottomEdge;
    for (i=0; i<bottomEdge-topEdge; i++) {
     c48:	e153000c 	cmp	r3, r12
     c4c:	1afffff9 	bne	c38 <sumOfCols+0x38>
     c50:	e12fff1e 	bx	lr
}
//end digit detection

//offset is for which column to calculate
int sumOfCols(int leftEdge, int rightEdge, int topEdge, int bottomEdge, int offset){
    int sum=0;
     c54:	e3a00000 	mov	r0, #0
        //fseek(inputFile,cols-1,SEEK_CUR);//go up one pixel
        row--;
    }
    //fseek(inputFile,startValue,SEEK_SET);
    return sum;
}
     c58:	e12fff1e 	bx	lr
     c5c:	0019b380 	.word	0x0019b380

00000c60 <roiPrint>:

void roiPrint(int roiWidth, int roiHeight,int whichDigit, int digits){
     c60:	e92d4ff0 	push	{r4, r5, r6, r7, r8, r9, r10, r11, lr}
     c64:	e28db020 	add	r11, sp, #32
     c68:	e24dd034 	sub	sp, sp, #52	; 0x34
     c6c:	e1a04002 	mov	r4, r2
    //buffer = &dummy;
    
    //int startPixel=54+256*4;//start of raster data
    //int startRoi=startPixel+(finalRows-finalBottomEdge)*finalCols+finalLeftEdge+finalFirstEdge;//bottom left of roi
    int digitWidth=roiWidth/digits;//width of a digit TODO: pass in digit calc, dont hardcode
    int digitOffset=(whichDigit-1)*digitWidth;//digit offset from start of roi is width of a digit*the digit needed-1
     c70:	e2444001 	sub	r4, r4, #1
    }
    //fseek(inputFile,startValue,SEEK_SET);
    return sum;
}

void roiPrint(int roiWidth, int roiHeight,int whichDigit, int digits){
     c74:	e50b1054 	str	r1, [r11, #-84]	; 0xffffffac
    //unsigned char buffer;
    int buffer;
    //unsigned char		dummy;
    unsigned char roiArray[roiHeight][roiWidth/digits];//row, col
     c78:	e1a01003 	mov	r1, r3
     c7c:	eb0002ed 	bl	1838 <__aeabi_idiv>
     c80:	e51b8054 	ldr	r8, [r11, #-84]	; 0xffffffac
     c84:	e1a0a000 	mov	r10, r0
    //int startRoi=startPixel+(finalRows-finalBottomEdge)*finalCols+finalLeftEdge+finalFirstEdge;//bottom left of roi
    int digitWidth=roiWidth/digits;//width of a digit TODO: pass in digit calc, dont hardcode
    int digitOffset=(whichDigit-1)*digitWidth;//digit offset from start of roi is width of a digit*the digit needed-1
    //fseek(inputFile,(startRoi+(roiHeight*finalCols))+digitOffset,SEEK_SET);//seek to start of top of digit
    int i,j;
    int rowStart=finalTopEdge;
     c88:	e30638ac 	movw	r3, #26796	; 0x68ac
     c8c:	e340302c 	movt	r3, #44	; 0x2c
    int colStart=finalLeftEdge+finalFirstEdge+digitOffset;
     c90:	e5931ad8 	ldr	r1, [r3, #2776]	; 0xad8
    //printf("width=%d height=%d\n",roiWidth, roiHeight);
    for (i=0; i<roiHeight; i++) {
     c94:	e3580000 	cmp	r8, #0

void roiPrint(int roiWidth, int roiHeight,int whichDigit, int digits){
    //unsigned char buffer;
    int buffer;
    //unsigned char		dummy;
    unsigned char roiArray[roiHeight][roiWidth/digits];//row, col
     c98:	e0000098 	mul	r0, r8, r0
    int digitWidth=roiWidth/digits;//width of a digit TODO: pass in digit calc, dont hardcode
    int digitOffset=(whichDigit-1)*digitWidth;//digit offset from start of roi is width of a digit*the digit needed-1
    //fseek(inputFile,(startRoi+(roiHeight*finalCols))+digitOffset,SEEK_SET);//seek to start of top of digit
    int i,j;
    int rowStart=finalTopEdge;
    int colStart=finalLeftEdge+finalFirstEdge+digitOffset;
     c9c:	e5932adc 	ldr	r2, [r3, #2780]	; 0xadc
    //int startRoi=startPixel+(finalRows-finalBottomEdge)*finalCols+finalLeftEdge+finalFirstEdge;//bottom left of roi
    int digitWidth=roiWidth/digits;//width of a digit TODO: pass in digit calc, dont hardcode
    int digitOffset=(whichDigit-1)*digitWidth;//digit offset from start of roi is width of a digit*the digit needed-1
    //fseek(inputFile,(startRoi+(roiHeight*finalCols))+digitOffset,SEEK_SET);//seek to start of top of digit
    int i,j;
    int rowStart=finalTopEdge;
     ca0:	e5933ad4 	ldr	r3, [r3, #2772]	; 0xad4

void roiPrint(int roiWidth, int roiHeight,int whichDigit, int digits){
    //unsigned char buffer;
    int buffer;
    //unsigned char		dummy;
    unsigned char roiArray[roiHeight][roiWidth/digits];//row, col
     ca4:	e2800007 	add	r0, r0, #7
    //int startRoi=startPixel+(finalRows-finalBottomEdge)*finalCols+finalLeftEdge+finalFirstEdge;//bottom left of roi
    int digitWidth=roiWidth/digits;//width of a digit TODO: pass in digit calc, dont hardcode
    int digitOffset=(whichDigit-1)*digitWidth;//digit offset from start of roi is width of a digit*the digit needed-1
    //fseek(inputFile,(startRoi+(roiHeight*finalCols))+digitOffset,SEEK_SET);//seek to start of top of digit
    int i,j;
    int rowStart=finalTopEdge;
     ca8:	e50b3044 	str	r3, [r11, #-68]	; 0xffffffbc

void roiPrint(int roiWidth, int roiHeight,int whichDigit, int digits){
    //unsigned char buffer;
    int buffer;
    //unsigned char		dummy;
    unsigned char roiArray[roiHeight][roiWidth/digits];//row, col
     cac:	e3c03007 	bic	r3, r0, #7
     cb0:	e04dd003 	sub	sp, sp, r3
    int digitWidth=roiWidth/digits;//width of a digit TODO: pass in digit calc, dont hardcode
    int digitOffset=(whichDigit-1)*digitWidth;//digit offset from start of roi is width of a digit*the digit needed-1
    //fseek(inputFile,(startRoi+(roiHeight*finalCols))+digitOffset,SEEK_SET);//seek to start of top of digit
    int i,j;
    int rowStart=finalTopEdge;
    int colStart=finalLeftEdge+finalFirstEdge+digitOffset;
     cb4:	e0813002 	add	r3, r1, r2
     cb8:	e0243a94 	mla	r4, r4, r10, r3

void roiPrint(int roiWidth, int roiHeight,int whichDigit, int digits){
    //unsigned char buffer;
    int buffer;
    //unsigned char		dummy;
    unsigned char roiArray[roiHeight][roiWidth/digits];//row, col
     cbc:	e50bd048 	str	sp, [r11, #-72]	; 0xffffffb8
    int digitWidth=roiWidth/digits;//width of a digit TODO: pass in digit calc, dont hardcode
    int digitOffset=(whichDigit-1)*digitWidth;//digit offset from start of roi is width of a digit*the digit needed-1
    //fseek(inputFile,(startRoi+(roiHeight*finalCols))+digitOffset,SEEK_SET);//seek to start of top of digit
    int i,j;
    int rowStart=finalTopEdge;
    int colStart=finalLeftEdge+finalFirstEdge+digitOffset;
     cc0:	e50b4038 	str	r4, [r11, #-56]	; 0xffffffc8
    //printf("width=%d height=%d\n",roiWidth, roiHeight);
    for (i=0; i<roiHeight; i++) {
     cc4:	da000051 	ble	e10 <roiPrint+0x1b0>
    }
    //fseek(inputFile,startValue,SEEK_SET);
    return sum;
}

void roiPrint(int roiWidth, int roiHeight,int whichDigit, int digits){
     cc8:	e51bc044 	ldr	r12, [r11, #-68]	; 0xffffffbc
     ccc:	e24a3009 	sub	r3, r10, #9
    //int startRoi=startPixel+(finalRows-finalBottomEdge)*finalCols+finalLeftEdge+finalFirstEdge;//bottom left of roi
    int digitWidth=roiWidth/digits;//width of a digit TODO: pass in digit calc, dont hardcode
    int digitOffset=(whichDigit-1)*digitWidth;//digit offset from start of roi is width of a digit*the digit needed-1
    //fseek(inputFile,(startRoi+(roiHeight*finalCols))+digitOffset,SEEK_SET);//seek to start of top of digit
    int i,j;
    int rowStart=finalTopEdge;
     cd0:	e51b1044 	ldr	r1, [r11, #-68]	; 0xffffffbc
    }
    //fseek(inputFile,startValue,SEEK_SET);
    return sum;
}

void roiPrint(int roiWidth, int roiHeight,int whichDigit, int digits){
     cd4:	e3c33007 	bic	r3, r3, #7
     cd8:	e1a0900d 	mov	r9, sp
     cdc:	e2833008 	add	r3, r3, #8
     ce0:	e088c00c 	add	r12, r8, r12
     ce4:	e50b3050 	str	r3, [r11, #-80]	; 0xffffffb0
     ce8:	e50bc04c 	str	r12, [r11, #-76]	; 0xffffffb4
    //int startRoi=startPixel+(finalRows-finalBottomEdge)*finalCols+finalLeftEdge+finalFirstEdge;//bottom left of roi
    int digitWidth=roiWidth/digits;//width of a digit TODO: pass in digit calc, dont hardcode
    int digitOffset=(whichDigit-1)*digitWidth;//digit offset from start of roi is width of a digit*the digit needed-1
    //fseek(inputFile,(startRoi+(roiHeight*finalCols))+digitOffset,SEEK_SET);//seek to start of top of digit
    int i,j;
    int rowStart=finalTopEdge;
     cec:	e50b1034 	str	r1, [r11, #-52]	; 0xffffffcc
    }
    //fseek(inputFile,startValue,SEEK_SET);
    return sum;
}

void roiPrint(int roiWidth, int roiHeight,int whichDigit, int digits){
     cf0:	e51b2034 	ldr	r2, [r11, #-52]	; 0xffffffcc
    int i,j;
    int rowStart=finalTopEdge;
    int colStart=finalLeftEdge+finalFirstEdge+digitOffset;
    //printf("width=%d height=%d\n",roiWidth, roiHeight);
    for (i=0; i<roiHeight; i++) {
        for (j=0; j<roiWidth/digits; j++) {
     cf4:	e35a0000 	cmp	r10, #0
    }
    //fseek(inputFile,startValue,SEEK_SET);
    return sum;
}

void roiPrint(int roiWidth, int roiHeight,int whichDigit, int digits){
     cf8:	e51b3044 	ldr	r3, [r11, #-68]	; 0xffffffbc
     cfc:	e0631002 	rsb	r1, r3, r2
    int i,j;
    int rowStart=finalTopEdge;
    int colStart=finalLeftEdge+finalFirstEdge+digitOffset;
    //printf("width=%d height=%d\n",roiWidth, roiHeight);
    for (i=0; i<roiHeight; i++) {
        for (j=0; j<roiWidth/digits; j++) {
     d00:	da00003b 	ble	df4 <roiPrint+0x194>
     d04:	e35a0008 	cmp	r10, #8
     d08:	da000084 	ble	f20 <roiPrint+0x2c0>
    }
    //fseek(inputFile,startValue,SEEK_SET);
    return sum;
}

void roiPrint(int roiWidth, int roiHeight,int whichDigit, int digits){
     d0c:	e51b2034 	ldr	r2, [r11, #-52]	; 0xffffffcc
     d10:	e51b4034 	ldr	r4, [r11, #-52]	; 0xffffffcc
     d14:	e51bc048 	ldr	r12, [r11, #-72]	; 0xffffffb8
     d18:	e51b0038 	ldr	r0, [r11, #-56]	; 0xffffffc8
     d1c:	e1a02102 	lsl	r2, r2, #2
     d20:	e59f3218 	ldr	r3, [pc, #536]	; f40 <roiPrint+0x2e0>
     d24:	e50ba040 	str	r10, [r11, #-64]	; 0xffffffc0
     d28:	e0828004 	add	r8, r2, r4
     d2c:	e59f420c 	ldr	r4, [pc, #524]	; f40 <roiPrint+0x2e0>
     d30:	e1a08388 	lsl	r8, r8, #7
     d34:	e50b202c 	str	r2, [r11, #-44]	; 0xffffffd4
     d38:	e50b303c 	str	r3, [r11, #-60]	; 0xffffffc4
     d3c:	e3a03000 	mov	r3, #0
     d40:	e021ca91 	mla	r1, r1, r10, r12
     d44:	e51ba050 	ldr	r10, [r11, #-80]	; 0xffffffb0
     d48:	e50b8028 	str	r8, [r11, #-40]	; 0xffffffd8
     d4c:	e0882000 	add	r2, r8, r0
     d50:	e0842102 	add	r2, r4, r2, lsl #2
     d54:	e51b8028 	ldr	r8, [r11, #-40]	; 0xffffffd8
     d58:	e2822020 	add	r2, r2, #32
     d5c:	e59f41dc 	ldr	r4, [pc, #476]	; f40 <roiPrint+0x2e0>
     d60:	e2811008 	add	r1, r1, #8
            buffer=hardImage[rowStart][colStart];
            //if (buffer==1) {
            //    buffer=1;
            //}
            //printf("%d",buffer);
            roiArray[i][j]=buffer;
     d64:	e512e020 	ldr	lr, [r2, #-32]	; 0xffffffe0
    }
    //fseek(inputFile,startValue,SEEK_SET);
    return sum;
}

void roiPrint(int roiWidth, int roiHeight,int whichDigit, int digits){
     d68:	e088c000 	add	r12, r8, r0
            buffer=hardImage[rowStart][colStart];
            //if (buffer==1) {
            //    buffer=1;
            //}
            //printf("%d",buffer);
            roiArray[i][j]=buffer;
     d6c:	e512701c 	ldr	r7, [r2, #-28]	; 0xffffffe4
     d70:	e5126018 	ldr	r6, [r2, #-24]	; 0xffffffe8
    }
    //fseek(inputFile,startValue,SEEK_SET);
    return sum;
}

void roiPrint(int roiWidth, int roiHeight,int whichDigit, int digits){
     d74:	e2800008 	add	r0, r0, #8
     d78:	e084c10c 	add	r12, r4, r12, lsl #2
            buffer=hardImage[rowStart][colStart];
            //if (buffer==1) {
            //    buffer=1;
            //}
            //printf("%d",buffer);
            roiArray[i][j]=buffer;
     d7c:	e7c9e003 	strb	lr, [r9, r3]
     d80:	e5125014 	ldr	r5, [r2, #-20]	; 0xffffffec
    }
    //fseek(inputFile,startValue,SEEK_SET);
    return sum;
}

void roiPrint(int roiWidth, int roiHeight,int whichDigit, int digits){
     d84:	e2833008 	add	r3, r3, #8
            buffer=hardImage[rowStart][colStart];
            //if (buffer==1) {
            //    buffer=1;
            //}
            //printf("%d",buffer);
            roiArray[i][j]=buffer;
     d88:	e5124010 	ldr	r4, [r2, #-16]
     d8c:	f5dcf088 	pld	[r12, #136]	; 0x88
     d90:	e512e00c 	ldr	lr, [r2, #-12]
     d94:	e153000a 	cmp	r3, r10
     d98:	e512c008 	ldr	r12, [r2, #-8]
     d9c:	e5417007 	strb	r7, [r1, #-7]
     da0:	e5416006 	strb	r6, [r1, #-6]
     da4:	e5128004 	ldr	r8, [r2, #-4]
     da8:	e5415005 	strb	r5, [r1, #-5]
     dac:	e5414004 	strb	r4, [r1, #-4]
     db0:	e541e003 	strb	lr, [r1, #-3]
     db4:	e541c002 	strb	r12, [r1, #-2]
     db8:	e5418001 	strb	r8, [r1, #-1]
     dbc:	1affffe4 	bne	d54 <roiPrint+0xf4>
     dc0:	e51ba040 	ldr	r10, [r11, #-64]	; 0xffffffc0
     dc4:	e51b402c 	ldr	r4, [r11, #-44]	; 0xffffffd4
    }
    //fseek(inputFile,startValue,SEEK_SET);
    return sum;
}

void roiPrint(int roiWidth, int roiHeight,int whichDigit, int digits){
     dc8:	e51b8034 	ldr	r8, [r11, #-52]	; 0xffffffcc
     dcc:	e51bc03c 	ldr	r12, [r11, #-60]	; 0xffffffc4
     dd0:	e0842008 	add	r2, r4, r8
     dd4:	e0802382 	add	r2, r0, r2, lsl #7
     dd8:	e08c2102 	add	r2, r12, r2, lsl #2
     ddc:	e2422004 	sub	r2, r2, #4
            buffer=hardImage[rowStart][colStart];
            //if (buffer==1) {
            //    buffer=1;
            //}
            //printf("%d",buffer);
            roiArray[i][j]=buffer;
     de0:	e5b21004 	ldr	r1, [r2, #4]!
     de4:	e7c91003 	strb	r1, [r9, r3]
    int i,j;
    int rowStart=finalTopEdge;
    int colStart=finalLeftEdge+finalFirstEdge+digitOffset;
    //printf("width=%d height=%d\n",roiWidth, roiHeight);
    for (i=0; i<roiHeight; i++) {
        for (j=0; j<roiWidth/digits; j++) {
     de8:	e2833001 	add	r3, r3, #1
     dec:	e15a0003 	cmp	r10, r3
     df0:	cafffffa 	bgt	de0 <roiPrint+0x180>
            colStart++;
        }
        //printf("1\n");
        colStart=finalLeftEdge+finalFirstEdge+digitOffset;
        //fseek(inputFile,-finalCols-roiWidth/3,SEEK_CUR);
        rowStart++;
     df4:	e51bc034 	ldr	r12, [r11, #-52]	; 0xffffffcc
     df8:	e089900a 	add	r9, r9, r10
    //fseek(inputFile,(startRoi+(roiHeight*finalCols))+digitOffset,SEEK_SET);//seek to start of top of digit
    int i,j;
    int rowStart=finalTopEdge;
    int colStart=finalLeftEdge+finalFirstEdge+digitOffset;
    //printf("width=%d height=%d\n",roiWidth, roiHeight);
    for (i=0; i<roiHeight; i++) {
     dfc:	e51b104c 	ldr	r1, [r11, #-76]	; 0xffffffb4
            colStart++;
        }
        //printf("1\n");
        colStart=finalLeftEdge+finalFirstEdge+digitOffset;
        //fseek(inputFile,-finalCols-roiWidth/3,SEEK_CUR);
        rowStart++;
     e00:	e28cc001 	add	r12, r12, #1
    //fseek(inputFile,(startRoi+(roiHeight*finalCols))+digitOffset,SEEK_SET);//seek to start of top of digit
    int i,j;
    int rowStart=finalTopEdge;
    int colStart=finalLeftEdge+finalFirstEdge+digitOffset;
    //printf("width=%d height=%d\n",roiWidth, roiHeight);
    for (i=0; i<roiHeight; i++) {
     e04:	e15c0001 	cmp	r12, r1
            colStart++;
        }
        //printf("1\n");
        colStart=finalLeftEdge+finalFirstEdge+digitOffset;
        //fseek(inputFile,-finalCols-roiWidth/3,SEEK_CUR);
        rowStart++;
     e08:	e50bc034 	str	r12, [r11, #-52]	; 0xffffffcc
    //fseek(inputFile,(startRoi+(roiHeight*finalCols))+digitOffset,SEEK_SET);//seek to start of top of digit
    int i,j;
    int rowStart=finalTopEdge;
    int colStart=finalLeftEdge+finalFirstEdge+digitOffset;
    //printf("width=%d height=%d\n",roiWidth, roiHeight);
    for (i=0; i<roiHeight; i++) {
     e0c:	1affffb7 	bne	cf0 <roiPrint+0x90>
     e10:	e30acd5c 	movw	r12, #44380	; 0xad5c
        colStart=finalLeftEdge+finalFirstEdge+digitOffset;
        //fseek(inputFile,-finalCols-roiWidth/3,SEEK_CUR);
        rowStart++;
    }
    //printing roi works now try resize
    double rowScale=28.0/(double)roiHeight;
     e14:	e51b0054 	ldr	r0, [r11, #-84]	; 0xffffffac
     e18:	e50bc028 	str	r12, [r11, #-40]	; 0xffffffd8
     e1c:	e30a4d5c 	movw	r4, #44380	; 0xad5c
     e20:	eb0003a7 	bl	1cc4 <__aeabi_i2d>
     e24:	e1a03001 	mov	r3, r1
     e28:	e3a01000 	mov	r1, #0
     e2c:	e1a02000 	mov	r2, r0
     e30:	e344103c 	movt	r1, #16444	; 0x403c
     e34:	e3a00000 	mov	r0, #0
     e38:	e3404019 	movt	r4, #25
     e3c:	eb00047b 	bl	2030 <__aeabi_ddiv>
     e40:	e1a03001 	mov	r3, r1
     e44:	e3a01000 	mov	r1, #0
     e48:	e1a02000 	mov	r2, r0
     e4c:	e3431ff0 	movt	r1, #16368	; 0x3ff0
     e50:	e3a00000 	mov	r0, #0
     e54:	e50b4028 	str	r4, [r11, #-40]	; 0xffffffd8
     e58:	eb000474 	bl	2030 <__aeabi_ddiv>
     e5c:	e14b03f4 	strd	r0, [r11, #-52]	; 0xffffffcc
    double colScale=28.0/(double)digitWidth;
     e60:	e1a0000a 	mov	r0, r10
     e64:	eb000396 	bl	1cc4 <__aeabi_i2d>
     e68:	e1a03001 	mov	r3, r1
     e6c:	e3a01000 	mov	r1, #0
     e70:	e1a02000 	mov	r2, r0
     e74:	e344103c 	movt	r1, #16444	; 0x403c
     e78:	e3a00000 	mov	r0, #0
    int curRow=0;//=(1.0/rowScale)+1;//ceiling of 1/rowscale*i
    int curCol=0;//=(int)((1.0/colScale))+1;
    for (i=0; i<28; i++) {
     e7c:	e3a07000 	mov	r7, #0
        //fseek(inputFile,-finalCols-roiWidth/3,SEEK_CUR);
        rowStart++;
    }
    //printing roi works now try resize
    double rowScale=28.0/(double)roiHeight;
    double colScale=28.0/(double)digitWidth;
     e80:	eb00046a 	bl	2030 <__aeabi_ddiv>
     e84:	e1a03001 	mov	r3, r1
     e88:	e3a01000 	mov	r1, #0
     e8c:	e1a02000 	mov	r2, r0
     e90:	e3431ff0 	movt	r1, #16368	; 0x3ff0
     e94:	e3a00000 	mov	r0, #0
     e98:	eb000464 	bl	2030 <__aeabi_ddiv>
     e9c:	e1a04000 	mov	r4, r0
     ea0:	e1a05001 	mov	r5, r1
    int curRow=0;//=(1.0/rowScale)+1;//ceiling of 1/rowscale*i
    int curCol=0;//=(int)((1.0/colScale))+1;
    for (i=0; i<28; i++) {
        curRow=(int)(1.0/rowScale * (double)(i+1))-1;
     ea4:	e2879001 	add	r9, r7, #1
    }
    //fseek(inputFile,startValue,SEEK_SET);
    return sum;
}

void roiPrint(int roiWidth, int roiHeight,int whichDigit, int digits){
     ea8:	e0677187 	rsb	r7, r7, r7, lsl #3
    double rowScale=28.0/(double)roiHeight;
    double colScale=28.0/(double)digitWidth;
    int curRow=0;//=(1.0/rowScale)+1;//ceiling of 1/rowscale*i
    int curCol=0;//=(int)((1.0/colScale))+1;
    for (i=0; i<28; i++) {
        curRow=(int)(1.0/rowScale * (double)(i+1))-1;
     eac:	e1a00009 	mov	r0, r9
     eb0:	eb000383 	bl	1cc4 <__aeabi_i2d>
     eb4:	e14b23d4 	ldrd	r2, [r11, #-52]	; 0xffffffcc
        for (j=0; j<28; j++) {
     eb8:	e3a06000 	mov	r6, #0
    double rowScale=28.0/(double)roiHeight;
    double colScale=28.0/(double)digitWidth;
    int curRow=0;//=(1.0/rowScale)+1;//ceiling of 1/rowscale*i
    int curCol=0;//=(int)((1.0/colScale))+1;
    for (i=0; i<28; i++) {
        curRow=(int)(1.0/rowScale * (double)(i+1))-1;
     ebc:	eb0003b7 	bl	1da0 <__aeabi_dmul>
     ec0:	eb00052e 	bl	2380 <__aeabi_d2iz>
    }
    //fseek(inputFile,startValue,SEEK_SET);
    return sum;
}

void roiPrint(int roiWidth, int roiHeight,int whichDigit, int digits){
     ec4:	e51b8028 	ldr	r8, [r11, #-40]	; 0xffffffd8
    double rowScale=28.0/(double)roiHeight;
    double colScale=28.0/(double)digitWidth;
    int curRow=0;//=(1.0/rowScale)+1;//ceiling of 1/rowscale*i
    int curCol=0;//=(int)((1.0/colScale))+1;
    for (i=0; i<28; i++) {
        curRow=(int)(1.0/rowScale * (double)(i+1))-1;
     ec8:	e2400001 	sub	r0, r0, #1
        for (j=0; j<28; j++) {
            curCol=(int)((1.0/colScale * (double)(j+1)))-1;
            smallImage[i][j]=roiArray[curRow][curCol];
     ecc:	e51bc048 	ldr	r12, [r11, #-72]	; 0xffffffb8
    }
    //fseek(inputFile,startValue,SEEK_SET);
    return sum;
}

void roiPrint(int roiWidth, int roiHeight,int whichDigit, int digits){
     ed0:	e0887107 	add	r7, r8, r7, lsl #2
    int curCol=0;//=(int)((1.0/colScale))+1;
    for (i=0; i<28; i++) {
        curRow=(int)(1.0/rowScale * (double)(i+1))-1;
        for (j=0; j<28; j++) {
            curCol=(int)((1.0/colScale * (double)(j+1)))-1;
            smallImage[i][j]=roiArray[curRow][curCol];
     ed4:	e028ca90 	mla	r8, r0, r10, r12
    }
    //fseek(inputFile,startValue,SEEK_SET);
    return sum;
}

void roiPrint(int roiWidth, int roiHeight,int whichDigit, int digits){
     ed8:	e2477001 	sub	r7, r7, #1
    int curRow=0;//=(1.0/rowScale)+1;//ceiling of 1/rowscale*i
    int curCol=0;//=(int)((1.0/colScale))+1;
    for (i=0; i<28; i++) {
        curRow=(int)(1.0/rowScale * (double)(i+1))-1;
        for (j=0; j<28; j++) {
            curCol=(int)((1.0/colScale * (double)(j+1)))-1;
     edc:	e2866001 	add	r6, r6, #1
     ee0:	e1a00006 	mov	r0, r6
     ee4:	eb000376 	bl	1cc4 <__aeabi_i2d>
     ee8:	e1a03005 	mov	r3, r5
     eec:	e1a02004 	mov	r2, r4
     ef0:	eb0003aa 	bl	1da0 <__aeabi_dmul>
     ef4:	eb000521 	bl	2380 <__aeabi_d2iz>
            smallImage[i][j]=roiArray[curRow][curCol];
     ef8:	e0880000 	add	r0, r8, r0
    double colScale=28.0/(double)digitWidth;
    int curRow=0;//=(1.0/rowScale)+1;//ceiling of 1/rowscale*i
    int curCol=0;//=(int)((1.0/colScale))+1;
    for (i=0; i<28; i++) {
        curRow=(int)(1.0/rowScale * (double)(i+1))-1;
        for (j=0; j<28; j++) {
     efc:	e356001c 	cmp	r6, #28
            curCol=(int)((1.0/colScale * (double)(j+1)))-1;
            smallImage[i][j]=roiArray[curRow][curCol];
     f00:	e5503001 	ldrb	r3, [r0, #-1]
     f04:	e5e73001 	strb	r3, [r7, #1]!
    double colScale=28.0/(double)digitWidth;
    int curRow=0;//=(1.0/rowScale)+1;//ceiling of 1/rowscale*i
    int curCol=0;//=(int)((1.0/colScale))+1;
    for (i=0; i<28; i++) {
        curRow=(int)(1.0/rowScale * (double)(i+1))-1;
        for (j=0; j<28; j++) {
     f08:	1afffff3 	bne	edc <roiPrint+0x27c>
    //printing roi works now try resize
    double rowScale=28.0/(double)roiHeight;
    double colScale=28.0/(double)digitWidth;
    int curRow=0;//=(1.0/rowScale)+1;//ceiling of 1/rowscale*i
    int curCol=0;//=(int)((1.0/colScale))+1;
    for (i=0; i<28; i++) {
     f0c:	e359001c 	cmp	r9, #28
     f10:	e1a07009 	mov	r7, r9
     f14:	1affffe2 	bne	ea4 <roiPrint+0x244>
            //printf("%d",smallImage[i][j]);
        }
        //printf("\n");
        //fseek(inputFile,-finalCols-roiWidth/3,SEEK_CUR);
    }
}
     f18:	e24bd020 	sub	sp, r11, #32
     f1c:	e8bd8ff0 	pop	{r4, r5, r6, r7, r8, r9, r10, r11, pc}
     f20:	e59f4018 	ldr	r4, [pc, #24]	; f40 <roiPrint+0x2e0>
     f24:	e1a08102 	lsl	r8, r2, #2
    int i,j;
    int rowStart=finalTopEdge;
    int colStart=finalLeftEdge+finalFirstEdge+digitOffset;
    //printf("width=%d height=%d\n",roiWidth, roiHeight);
    for (i=0; i<roiHeight; i++) {
        for (j=0; j<roiWidth/digits; j++) {
     f28:	e51b0038 	ldr	r0, [r11, #-56]	; 0xffffffc8
     f2c:	e3a03000 	mov	r3, #0
     f30:	e50b802c 	str	r8, [r11, #-44]	; 0xffffffd4
     f34:	e50b403c 	str	r4, [r11, #-60]	; 0xffffffc4
     f38:	e1a04008 	mov	r4, r8
     f3c:	eaffffa1 	b	dc8 <roiPrint+0x168>
     f40:	0019b380 	.word	0x0019b380

00000f44 <roiDetection>:
        //fseek(inputFile,-finalCols-roiWidth/3,SEEK_CUR);
    }
}

//todo: add pass in image string
int roiDetection(){
     f44:	e92d0ff0 	push	{r4, r5, r6, r7, r8, r9, r10, r11}
     f48:	e3a03000 	mov	r3, #0
     f4c:	e59f7270 	ldr	r7, [pc, #624]	; 11c4 <roiDetection+0x280>
     f50:	e24dd008 	sub	sp, sp, #8
    //int ftellInt=ftell(source);
    //printf("ftell=%d\n",ftellInt);
    int leftEdge,rightEdge,topEdge,bottomEdge;
    int destPixel;
    
    bottomEdge=479;
     f54:	e300c1df 	movw	r12, #479	; 0x1df
        //fseek(inputFile,-finalCols-roiWidth/3,SEEK_CUR);
    }
}

//todo: add pass in image string
int roiDetection(){
     f58:	e0872003 	add	r2, r7, r3
    int destPixel;
    
    bottomEdge=479;
    do {
        destPixel=hardImage[bottomEdge][640/2];
        bottomEdge--;
     f5c:	e24cc001 	sub	r12, r12, #1
        //fseek(inputFile,-finalCols-roiWidth/3,SEEK_CUR);
    }
}

//todo: add pass in image string
int roiDetection(){
     f60:	e282294a 	add	r2, r2, #1212416	; 0x128000
     f64:	e2433c0a 	sub	r3, r3, #2560	; 0xa00
     f68:	e2822c3b 	add	r2, r2, #15104	; 0x3b00
    int leftEdge,rightEdge,topEdge,bottomEdge;
    int destPixel;
    
    bottomEdge=479;
    do {
        destPixel=hardImage[bottomEdge][640/2];
     f6c:	e5922000 	ldr	r2, [r2]
        bottomEdge--;
    } while (destPixel==0);
     f70:	e3520000 	cmp	r2, #0
     f74:	0afffff7 	beq	f58 <roiDetection+0x14>
        //fseek(inputFile,-finalCols-roiWidth/3,SEEK_CUR);
    }
}

//todo: add pass in image string
int roiDetection(){
     f78:	e59f3244 	ldr	r3, [pc, #580]	; 11c4 <roiDetection+0x280>
     f7c:	e08c210c 	add	r2, r12, r12, lsl #2
        bottomEdge--;
    } while (destPixel==0);
    //bottomEdge=rows-bottomEdge;
   // printf("bottomEdge=%d\n",bottomEdge);
    
    bottomEdge--;
     f80:	e24cc001 	sub	r12, r12, #1
        //fseek(inputFile,-finalCols-roiWidth/3,SEEK_CUR);
    }
}

//todo: add pass in image string
int roiDetection(){
     f84:	e0833482 	add	r3, r3, r2, lsl #9
    //bottomEdge=rows-bottomEdge;
   // printf("bottomEdge=%d\n",bottomEdge);
    
    bottomEdge--;
    do {
        destPixel=hardImage[bottomEdge][640/2];
     f88:	e5132500 	ldr	r2, [r3, #-1280]	; 0xfffffb00
        bottomEdge--;
     f8c:	e24cc001 	sub	r12, r12, #1
     f90:	e2433c0a 	sub	r3, r3, #2560	; 0xa00
    } while (destPixel!=0);
     f94:	e3520000 	cmp	r2, #0
     f98:	1afffffa 	bne	f88 <roiDetection+0x44>
    //bottomEdge=rows-bottomEdge;
    //printf("bottomEdge2=%d\n",bottomEdge);
    if(bottomEdge<0){
     f9c:	e35c0000 	cmp	r12, #0
     fa0:	a59f321c 	ldrge	r3, [pc, #540]	; 11c4 <roiDetection+0x280>
     fa4:	aa000001 	bge	fb0 <roiDetection+0x6c>
     fa8:	ea000071 	b	1174 <roiDetection+0x230>
        return;
    }
    topEdge=0;
    do {
        destPixel=hardImage[topEdge][640/2];
        topEdge++;
     fac:	e1a02001 	mov	r2, r1
        errorDet=true;
        return;
    }
    topEdge=0;
    do {
        destPixel=hardImage[topEdge][640/2];
     fb0:	e5930500 	ldr	r0, [r3, #1280]	; 0x500
        topEdge++;
     fb4:	e2821001 	add	r1, r2, #1
     fb8:	e2833c0a 	add	r3, r3, #2560	; 0xa00
    } while (destPixel==0);
     fbc:	e3500000 	cmp	r0, #0
     fc0:	0afffff9 	beq	fac <roiDetection+0x68>
    //bottomEdge=rows-bottomEdge;
    //printf("topEdge=%d\n",topEdge);
    if(topEdge == 1){
     fc4:	e3510001 	cmp	r1, #1
	errorDet = true;
     fc8:	030638ac 	movweq	r3, #26796	; 0x68ac
     fcc:	0340302c 	movteq	r3, #44	; 0x2c
     fd0:	05c31ae0 	strbeq	r1, [r3, #2784]	; 0xae0
        destPixel=hardImage[topEdge][640/2];
        topEdge++;
    } while (destPixel==0);
    //bottomEdge=rows-bottomEdge;
    //printf("topEdge=%d\n",topEdge);
    if(topEdge == 1){
     fd4:	0a000062 	beq	1164 <roiDetection+0x220>
	errorDet = true;
	return;
	}
    topEdge++;
     fd8:	e2825002 	add	r5, r2, #2
        //fseek(inputFile,-finalCols-roiWidth/3,SEEK_CUR);
    }
}

//todo: add pass in image string
int roiDetection(){
     fdc:	e0853105 	add	r3, r5, r5, lsl #2
     fe0:	e0873483 	add	r3, r7, r3, lsl #9
     fe4:	e2833c05 	add	r3, r3, #1280	; 0x500
	errorDet = true;
	return;
	}
    topEdge++;
    do {
        destPixel=hardImage[topEdge][640/2];
     fe8:	e4938a00 	ldr	r8, [r3], #2560	; 0xa00
        topEdge++;
     fec:	e2855001 	add	r5, r5, #1
    } while (destPixel!=0);
     ff0:	e3580000 	cmp	r8, #0
     ff4:	1afffffb 	bne	fe8 <roiDetection+0xa4>
    if (topEdge>479) {
     ff8:	e3550e1e 	cmp	r5, #480	; 0x1e0
     ffc:	aa00005c 	bge	1174 <roiDetection+0x230>
        errorDet=true;
        return;
    }
    if (topEdge>bottomEdge) {
    1000:	e155000c 	cmp	r5, r12
    1004:	ca00005a 	bgt	1174 <roiDetection+0x230>
    1008:	e08c3005 	add	r3, r12, r5
    100c:	e1a030c3 	asr	r3, r3, #1
        //fseek(inputFile,-finalCols-roiWidth/3,SEEK_CUR);
    }
}

//todo: add pass in image string
int roiDetection(){
    1010:	e1a02103 	lsl	r2, r3, #2
    1014:	e0821003 	add	r1, r2, r3
    1018:	e0871481 	add	r1, r7, r1, lsl #9
    101c:	e2411004 	sub	r1, r1, #4
	int m, n;
	leftEdge=0;
    do {
        destPixel=hardImage[(bottomEdge+topEdge)/2][leftEdge];
        leftEdge++;
    } while (destPixel==0);
    1020:	e5b10004 	ldr	r0, [r1, #4]!
    //printf("topEdge2=%d\n",topEdge);
	int m, n;
	leftEdge=0;
    do {
        destPixel=hardImage[(bottomEdge+topEdge)/2][leftEdge];
        leftEdge++;
    1024:	e2888001 	add	r8, r8, #1
    } while (destPixel==0);
    1028:	e3500000 	cmp	r0, #0
    102c:	0afffffb 	beq	1020 <roiDetection+0xdc>
        //fseek(inputFile,-finalCols-roiWidth/3,SEEK_CUR);
    }
}

//todo: add pass in image string
int roiDetection(){
    1030:	e0823003 	add	r3, r2, r3
    1034:	e300227f 	movw	r2, #639	; 0x27f
    1038:	e0873483 	add	r3, r7, r3, lsl #9
    103c:	e58d2004 	str	r2, [sp, #4]
    1040:	e2833c0a 	add	r3, r3, #2560	; 0xa00
    } while (destPixel==0);
    rightEdge=639;
    do {
        destPixel=hardImage[(bottomEdge+topEdge)/2][rightEdge];
        rightEdge--;
    } while (destPixel==0);
    1044:	e5331004 	ldr	r1, [r3, #-4]!
        leftEdge++;
    } while (destPixel==0);
    rightEdge=639;
    do {
        destPixel=hardImage[(bottomEdge+topEdge)/2][rightEdge];
        rightEdge--;
    1048:	e2422001 	sub	r2, r2, #1
    } while (destPixel==0);
    104c:	e3510000 	cmp	r1, #0
    1050:	0afffffb 	beq	1044 <roiDetection+0x100>
	if(leftEdge >700){
    1054:	e3580faf 	cmp	r8, #700	; 0x2bc
    1058:	e58d2004 	str	r2, [sp, #4]
    105c:	ca000044 	bgt	1174 <roiDetection+0x230>
    1060:	e065600c 	rsb	r6, r5, r12
        //fseek(inputFile,-finalCols-roiWidth/3,SEEK_CUR);
    }
}

//todo: add pass in image string
int roiDetection(){
    1064:	e08ca10c 	add	r10, r12, r12, lsl #2
    1068:	e0661a86 	rsb	r1, r6, r6, lsl #21
    106c:	e3a04001 	mov	r4, #1
    1070:	e1a0a38a 	lsl	r10, r10, #7
    1074:	e0661101 	rsb	r1, r6, r1, lsl #2
    1078:	e1a01481 	lsl	r1, r1, #9
int sumOfCols(int leftEdge, int rightEdge, int topEdge, int bottomEdge, int offset){
    int sum=0;
    int i;
    int pixel;
    int row=bottomEdge;
    for (i=0; i<bottomEdge-topEdge; i++) {
    107c:	e3560000 	cmp	r6, #0
    1080:	da00000c 	ble	10b8 <roiDetection+0x174>
        //fseek(inputFile,-finalCols-roiWidth/3,SEEK_CUR);
    }
}

//todo: add pass in image string
int roiDetection(){
    1084:	e0889004 	add	r9, r8, r4
    1088:	e3a03000 	mov	r3, #0
    108c:	e089900a 	add	r9, r9, r10
    1090:	e1a02003 	mov	r2, r3
    1094:	e0879109 	add	r9, r7, r9, lsl #2
    int row=bottomEdge;
    for (i=0; i<bottomEdge-topEdge; i++) {
        //fread(ptrC,1,1,inputFile);
        //reverse pixel
        pixel=hardImage[row][leftEdge+offset];
        if(pixel==1){
    1098:	e7990003 	ldr	r0, [r9, r3]
    109c:	e2433c0a 	sub	r3, r3, #2560	; 0xa00
            pixel=0;
        }
        else
            pixel=1;
        sum+=pixel;
    10a0:	e3500001 	cmp	r0, #1
    10a4:	12822001 	addne	r2, r2, #1
int sumOfCols(int leftEdge, int rightEdge, int topEdge, int bottomEdge, int offset){
    int sum=0;
    int i;
    int pixel;
    int row=bottomEdge;
    for (i=0; i<bottomEdge-topEdge; i++) {
    10a8:	e1530001 	cmp	r3, r1
    10ac:	1afffff9 	bne	1098 <roiDetection+0x154>
    int sumOfCol;
    
    while (detectedFullImage==false) {
        sumOfCol=sumOfCols(leftEdge,rightEdge,topEdge,bottomEdge,detectWhile);
        
        while (sumOfCol==0) {
    10b0:	e3520000 	cmp	r2, #0
    10b4:	1a000013 	bne	1108 <roiDetection+0x1c4>
        //fseek(inputFile,-finalCols-roiWidth/3,SEEK_CUR);
    }
}

//todo: add pass in image string
int roiDetection(){
    10b8:	e284b001 	add	r11, r4, #1
    10bc:	e08b9008 	add	r9, r11, r8
    10c0:	e08a9009 	add	r9, r10, r9
    10c4:	e0879109 	add	r9, r7, r9, lsl #2
int sumOfCols(int leftEdge, int rightEdge, int topEdge, int bottomEdge, int offset){
    int sum=0;
    int i;
    int pixel;
    int row=bottomEdge;
    for (i=0; i<bottomEdge-topEdge; i++) {
    10c8:	e3560000 	cmp	r6, #0
    
    while (detectedFullImage==false) {
        sumOfCol=sumOfCols(leftEdge,rightEdge,topEdge,bottomEdge,detectWhile);
        
        while (sumOfCol==0) {
            detectWhile++;
    10cc:	e1a0400b 	mov	r4, r11
int sumOfCols(int leftEdge, int rightEdge, int topEdge, int bottomEdge, int offset){
    int sum=0;
    int i;
    int pixel;
    int row=bottomEdge;
    for (i=0; i<bottomEdge-topEdge; i++) {
    10d0:	da000009 	ble	10fc <roiDetection+0x1b8>
    10d4:	e3a03000 	mov	r3, #0
    10d8:	e1a02003 	mov	r2, r3
        //fread(ptrC,1,1,inputFile);
        //reverse pixel
        pixel=hardImage[row][leftEdge+offset];
        if(pixel==1){
    10dc:	e7990003 	ldr	r0, [r9, r3]
    10e0:	e2433c0a 	sub	r3, r3, #2560	; 0xa00
            pixel=0;
        }
        else
            pixel=1;
        sum+=pixel;
    10e4:	e3500001 	cmp	r0, #1
    10e8:	12822001 	addne	r2, r2, #1
int sumOfCols(int leftEdge, int rightEdge, int topEdge, int bottomEdge, int offset){
    int sum=0;
    int i;
    int pixel;
    int row=bottomEdge;
    for (i=0; i<bottomEdge-topEdge; i++) {
    10ec:	e1530001 	cmp	r3, r1
    10f0:	1afffff9 	bne	10dc <roiDetection+0x198>
    int sumOfCol;
    
    while (detectedFullImage==false) {
        sumOfCol=sumOfCols(leftEdge,rightEdge,topEdge,bottomEdge,detectWhile);
        
        while (sumOfCol==0) {
    10f4:	e3520000 	cmp	r2, #0
    10f8:	1a000002 	bne	1108 <roiDetection+0x1c4>
    10fc:	e2899004 	add	r9, r9, #4
    1100:	e28bb001 	add	r11, r11, #1
    1104:	eaffffef 	b	10c8 <roiDetection+0x184>
        //fseek(inputFile,-finalCols-roiWidth/3,SEEK_CUR);
    }
}

//todo: add pass in image string
int roiDetection(){
    1108:	e284b001 	add	r11, r4, #1
int sumOfCols(int leftEdge, int rightEdge, int topEdge, int bottomEdge, int offset){
    int sum=0;
    int i;
    int pixel;
    int row=bottomEdge;
    for (i=0; i<bottomEdge-topEdge; i++) {
    110c:	e3560000 	cmp	r6, #0
        //fseek(inputFile,-finalCols-roiWidth/3,SEEK_CUR);
    }
}

//todo: add pass in image string
int roiDetection(){
    1110:	e08b9008 	add	r9, r11, r8
    1114:	e089900a 	add	r9, r9, r10
    1118:	e0879109 	add	r9, r7, r9, lsl #2
int sumOfCols(int leftEdge, int rightEdge, int topEdge, int bottomEdge, int offset){
    int sum=0;
    int i;
    int pixel;
    int row=bottomEdge;
    for (i=0; i<bottomEdge-topEdge; i++) {
    111c:	ca00001d 	bgt	1198 <roiDetection+0x254>
        }
        
        firstEdge=detectWhile;
        
        while (sumOfCol!=0) {
            detectWhile++;
    1120:	e1a0200b 	mov	r2, r11
            sumOfCol=sumOfCols(leftEdge,rightEdge,topEdge,bottomEdge,detectWhile);
            
        }
        secondEdge=detectWhile;
        
        if (secondEdge-firstEdge>20) {
    1124:	e064b00b 	rsb	r11, r4, r11
    1128:	e35b0014 	cmp	r11, #20
    112c:	da000022 	ble	11bc <roiDetection+0x278>
            detectedFullImage=true;
        }
    }
    
    finalTopEdge=topEdge;
    1130:	e30638ac 	movw	r3, #26796	; 0x68ac
    1134:	e340302c 	movt	r3, #44	; 0x2c
    finalBottomEdge=bottomEdge;
    finalFirstEdge=firstEdge;
    finalSecondEdge=secondEdge;
    1138:	e5832ae8 	str	r2, [r3, #2792]	; 0xae8
    finalLeftEdge=leftEdge;
    finalRightEdge=rightEdge;
    113c:	e59d2004 	ldr	r2, [sp, #4]
        if (secondEdge-firstEdge>20) {
            detectedFullImage=true;
        }
    }
    
    finalTopEdge=topEdge;
    1140:	e5835ad4 	str	r5, [r3, #2772]	; 0xad4
    finalBottomEdge=bottomEdge;
    1144:	e583cae4 	str	r12, [r3, #2788]	; 0xae4
    finalFirstEdge=firstEdge;
    finalSecondEdge=secondEdge;
    finalLeftEdge=leftEdge;
    finalRightEdge=rightEdge;
    1148:	e5832aec 	str	r2, [r3, #2796]	; 0xaec
    finalRows=480;
    114c:	e3a02e1e 	mov	r2, #480	; 0x1e0
    1150:	e5832af0 	str	r2, [r3, #2800]	; 0xaf0
    finalCols=640;
    1154:	e3a02d0a 	mov	r2, #640	; 0x280
        }
    }
    
    finalTopEdge=topEdge;
    finalBottomEdge=bottomEdge;
    finalFirstEdge=firstEdge;
    1158:	e5834adc 	str	r4, [r3, #2780]	; 0xadc
    finalSecondEdge=secondEdge;
    finalLeftEdge=leftEdge;
    115c:	e5838ad8 	str	r8, [r3, #2776]	; 0xad8
    finalRightEdge=rightEdge;
    finalRows=480;
    finalCols=640;
    1160:	e5832af4 	str	r2, [r3, #2804]	; 0xaf4
    
}
    1164:	e3a00000 	mov	r0, #0
    1168:	e28dd008 	add	sp, sp, #8
    116c:	e8bd0ff0 	pop	{r4, r5, r6, r7, r8, r9, r10, r11}
    1170:	e12fff1e 	bx	lr
    do {
        destPixel=hardImage[(bottomEdge+topEdge)/2][rightEdge];
        rightEdge--;
    } while (destPixel==0);
	if(leftEdge >700){
		errorDet = true;
    1174:	e30638ac 	movw	r3, #26796	; 0x68ac
    1178:	e3a02001 	mov	r2, #1
    117c:	e340302c 	movt	r3, #44	; 0x2c
    1180:	e5c32ae0 	strb	r2, [r3, #2784]	; 0xae0
	return;
    1184:	eafffff6 	b	1164 <roiDetection+0x220>
            sumOfCol=sumOfCols(leftEdge,rightEdge,topEdge,bottomEdge,detectWhile);
        }
        
        firstEdge=detectWhile;
        
        while (sumOfCol!=0) {
    1188:	e3520000 	cmp	r2, #0
    118c:	e2899004 	add	r9, r9, #4
    1190:	0affffe2 	beq	1120 <roiDetection+0x1dc>
            detectWhile++;
    1194:	e28bb001 	add	r11, r11, #1
int sumOfCols(int leftEdge, int rightEdge, int topEdge, int bottomEdge, int offset){
    int sum=0;
    int i;
    int pixel;
    int row=bottomEdge;
    for (i=0; i<bottomEdge-topEdge; i++) {
    1198:	e3a03000 	mov	r3, #0
    119c:	e1a02003 	mov	r2, r3
        //fread(ptrC,1,1,inputFile);
        //reverse pixel
        pixel=hardImage[row][leftEdge+offset];
        if(pixel==1){
    11a0:	e7990003 	ldr	r0, [r9, r3]
    11a4:	e2433c0a 	sub	r3, r3, #2560	; 0xa00
            pixel=0;
        }
        else
            pixel=1;
        sum+=pixel;
    11a8:	e3500001 	cmp	r0, #1
    11ac:	12822001 	addne	r2, r2, #1
int sumOfCols(int leftEdge, int rightEdge, int topEdge, int bottomEdge, int offset){
    int sum=0;
    int i;
    int pixel;
    int row=bottomEdge;
    for (i=0; i<bottomEdge-topEdge; i++) {
    11b0:	e1530001 	cmp	r3, r1
    11b4:	1afffff9 	bne	11a0 <roiDetection+0x25c>
    11b8:	eafffff2 	b	1188 <roiDetection+0x244>
            sumOfCol=sumOfCols(leftEdge,rightEdge,topEdge,bottomEdge,detectWhile);
            
        }
        secondEdge=detectWhile;
        
        if (secondEdge-firstEdge>20) {
    11bc:	e1a04002 	mov	r4, r2
    11c0:	eaffffad 	b	107c <roiDetection+0x138>
    11c4:	0019b380 	.word	0x0019b380

000011c8 <main>:
    finalCols=640;
    
}


int main(void){
    11c8:	e92d4ff0 	push	{r4, r5, r6, r7, r8, r9, r10, r11, lr}
	int count = 0;	
	int fakeCounter = 0;
	char junk[10];
	int flag = 0;
	
	*(hwreset) = 1;
    11cc:	e30a4cf0 	movw	r4, #44272	; 0xacf0
    finalCols=640;
    
}


int main(void){
    11d0:	e28db020 	add	r11, sp, #32
	int count = 0;	
	int fakeCounter = 0;
	char junk[10];
	int flag = 0;
	
	*(hwreset) = 1;
    11d4:	e3404019 	movt	r4, #25
    finalCols=640;
    
}


int main(void){
    11d8:	e24dd06c 	sub	sp, sp, #108	; 0x6c
	char junk[10];
	int flag = 0;
	
	*(hwreset) = 1;
	*(greyparameter) = 210;
	*(ready) = 0;	
    11dc:	e3a02000 	mov	r2, #0
	int count = 0;	
	int fakeCounter = 0;
	char junk[10];
	int flag = 0;
	
	*(hwreset) = 1;
    11e0:	e50b4050 	str	r4, [r11, #-80]	; 0xffffffb0
	*(greyparameter) = 210;
	*(ready) = 0;	
    11e4:	e51b7050 	ldr	r7, [r11, #-80]	; 0xffffffb0
	int count = 0;	
	int fakeCounter = 0;
	char junk[10];
	int flag = 0;
	
	*(hwreset) = 1;
    11e8:	e3a03001 	mov	r3, #1
    11ec:	e51468e8 	ldr	r6, [r4, #-2280]	; 0xfffff718
	*(ready) = 0;	
	*(fifowe) = 1;
	*(istart) = 1; 
	*(muxswitch) = 1;
	do{
		start = 0;
    11f0:	e1a05002 	mov	r5, r2
	int fakeCounter = 0;
	char junk[10];
	int flag = 0;
	
	*(hwreset) = 1;
	*(greyparameter) = 210;
    11f4:	e51448e4 	ldr	r4, [r4, #-2276]	; 0xfffff71c
	*(ready) = 0;	
    11f8:	e517e8e0 	ldr	lr, [r7, #-2272]	; 0xfffff720
	*(fifowe) = 1;
    11fc:	e517c8dc 	ldr	r12, [r7, #-2268]	; 0xfffff724
	*(istart) = 1; 
    1200:	e51708d8 	ldr	r0, [r7, #-2264]	; 0xfffff728
	*(muxswitch) = 1;
    1204:	e51718d4 	ldr	r1, [r7, #-2260]	; 0xfffff72c
	int count = 0;	
	int fakeCounter = 0;
	char junk[10];
	int flag = 0;
	
	*(hwreset) = 1;
    1208:	e5863000 	str	r3, [r6]
	*(greyparameter) = 210;
    120c:	e3a060d2 	mov	r6, #210	; 0xd2
    1210:	e5846000 	str	r6, [r4]
	*(ready) = 0;	
    1214:	e58e2000 	str	r2, [lr]
	*(fifowe) = 1;
    1218:	e58c3000 	str	r3, [r12]
	*(istart) = 1; 
    121c:	e5803000 	str	r3, [r0]
	*(muxswitch) = 1;
    1220:	e5813000 	str	r3, [r1]
	do{
		start = 0;
		printf("\nPress 1 when vga ready:");
    1224:	e3040e88 	movw	r0, #20104	; 0x4e88
	*(ready) = 0;	
	*(fifowe) = 1;
	*(istart) = 1; 
	*(muxswitch) = 1;
	do{
		start = 0;
    1228:	e50b5034 	str	r5, [r11, #-52]	; 0xffffffcc
		printf("\nPress 1 when vga ready:");
    122c:	e3400001 	movt	r0, #1
	*(ready) = 0;	
	*(fifowe) = 1;
	*(istart) = 1; 
	*(muxswitch) = 1;
	do{
		start = 0;
    1230:	e3a04000 	mov	r4, #0
		printf("\nPress 1 when vga ready:");
    1234:	eb0005f3 	bl	2a08 <printf>
		scanf("%d", &start);
    1238:	e3040ea4 	movw	r0, #20132	; 0x4ea4
    123c:	e24b1034 	sub	r1, r11, #52	; 0x34
    1240:	e3400001 	movt	r0, #1
    1244:	eb00062d 	bl	2b00 <scanf>
		scanf("%c", &junk);
    1248:	e3040ea8 	movw	r0, #20136	; 0x4ea8
    124c:	e24b1030 	sub	r1, r11, #48	; 0x30
    1250:	e3400001 	movt	r0, #1
    1254:	eb000629 	bl	2b00 <scanf>
	}while(start != 1);
    1258:	e51b3034 	ldr	r3, [r11, #-52]	; 0xffffffcc
    125c:	e3530001 	cmp	r3, #1
    1260:	1affffef 	bne	1224 <main+0x5c>
	*(muxswitch) = 0;
    1264:	e51ba050 	ldr	r10, [r11, #-80]	; 0xffffffb0
    1268:	e30acd5c 	movw	r12, #44380	; 0xad5c
    126c:	e340c019 	movt	r12, #25
    1270:	e30658ac 	movw	r5, #26796	; 0x68ac
    1274:	e28c7e62 	add	r7, r12, #1568	; 0x620
    1278:	e1a06004 	mov	r6, r4
    127c:	e51a38d4 	ldr	r3, [r10, #-2260]	; 0xfffff72c
    1280:	e340502c 	movt	r5, #44	; 0x2c
    1284:	e2877004 	add	r7, r7, #4
    1288:	e50bc068 	str	r12, [r11, #-104]	; 0xffffff98
    128c:	e50b506c 	str	r5, [r11, #-108]	; 0xffffff94
    1290:	e5834000 	str	r4, [r3]
    1294:	e1a0400c 	mov	r4, r12
    1298:	e50b7048 	str	r7, [r11, #-72]	; 0xffffffb8
while(1){
	
	finalDigitToPrint=0;
	start = 0;
	errorDet = false;
	*(hwreset) = 1;	
    129c:	e51ae8e8 	ldr	lr, [r10, #-2280]	; 0xfffff718
	for(i=0;i<10000000;i++){}
	
	
while(1){
	
	finalDigitToPrint=0;
    12a0:	e3a02000 	mov	r2, #0
	start = 0;
	errorDet = false;
	*(hwreset) = 1;	
	*(greyparameter) = 225;
    12a4:	e51ac8e4 	ldr	r12, [r10, #-2276]	; 0xfffff71c
while(1){
	
	finalDigitToPrint=0;
	start = 0;
	errorDet = false;
	*(hwreset) = 1;	
    12a8:	e3a03001 	mov	r3, #1
	*(greyparameter) = 225;
	//*(ready) = 0;	
	*(fifowe) = 1;
    12ac:	e51a08dc 	ldr	r0, [r10, #-2268]	; 0xfffff724
	//*(hwreset) = 0;
	//*(hwreset) = 1;
	*(istart) = 0;
    12b0:	e51a18d8 	ldr	r1, [r10, #-2264]	; 0xfffff728
	for(i=0;i<10000000;i++){}
	
	
while(1){
	
	finalDigitToPrint=0;
    12b4:	e5842620 	str	r2, [r4, #1568]	; 0x620
	start = 0;
    12b8:	e50b2034 	str	r2, [r11, #-52]	; 0xffffffcc
	errorDet = false;
    12bc:	e5c52ae0 	strb	r2, [r5, #2784]	; 0xae0
	*(hwreset) = 1;	
    12c0:	e58e3000 	str	r3, [lr]
	*(greyparameter) = 225;
    12c4:	e3a0e0e1 	mov	lr, #225	; 0xe1
    12c8:	e58ce000 	str	lr, [r12]
	//*(ready) = 0;	
	*(fifowe) = 1;
    12cc:	e5803000 	str	r3, [r0]
	//*(hwreset) = 0;
	//*(hwreset) = 1;
	*(istart) = 0;
    12d0:	e5812000 	str	r2, [r1]
	*(istart) = 1;
    12d4:	e5813000 	str	r3, [r1]
  return cycleCount;
}
static inline void initCounters ()
{
  // Enable user access to performance counter
  asm volatile ("MCR p15, 0, %0, C9, C14, 0\t\n" :: "r"(1));
    12d8:	ee093f1e 	mcr	15, 0, r3, cr9, cr14, {0}
  // Reset all counters to zero
  int MCRP15ResetAll = 23;
  asm volatile ("MCR p15, 0, %0, c9, c12, 0\t\n" :: "r"(MCRP15ResetAll));  
    12dc:	e3a03017 	mov	r3, #23
    12e0:	ee093f1c 	mcr	15, 0, r3, cr9, cr12, {0}
  // Enable all counters:  
  asm volatile ("MCR p15, 0, %0, c9, c12, 1\t\n" :: "r"(0x8000000f));  
    12e4:	e3a0313e 	mov	r3, #-2147483633	; 0x8000000f
    12e8:	ee093f3c 	mcr	15, 0, r3, cr9, cr12, {1}
  // Disable counter interrupts
  asm volatile ("MCR p15, 0, %0, C9, C14, 2\t\n" :: "r"(0x8000000f));
    12ec:	ee093f5e 	mcr	15, 0, r3, cr9, cr14, {2}
  // Clear overflows:
  asm volatile ("MCR p15, 0, %0, c9, c12, 3\t\n" :: "r"(0x8000000f));
    12f0:	ee093f7c 	mcr	15, 0, r3, cr9, cr12, {3}

static inline unsigned int getCycles ()
{
  unsigned int cycleCount;
  // Read CCNT register
  asm volatile ("MRC p15, 0, %0, c9, c13, 0\t\n": "=r"(cycleCount));  
    12f4:	ee193f1d 	mrc	15, 0, r3, cr9, cr13, {0}
    12f8:	ee192f1d 	mrc	15, 0, r2, cr9, cr13, {0}
	
	time = getCycles() - time;
	printf ("Elapsed Time: %d cycles\n", time); */
	
	do{
		start = 0;
    12fc:	e3a04000 	mov	r4, #0
	*(istart) = 1;


	initCounters ();
	unsigned int time = getCycles();
	unsigned int OH = getCycles() - time;
    1300:	e0632002 	rsb	r2, r3, r2
    1304:	e50b2080 	str	r2, [r11, #-128]	; 0xffffff80
	time = getCycles() - time;
	printf ("Elapsed Time: %d cycles\n", time); */
	
	do{
		start = 0;
		printf("\nPress 1 to start:");
    1308:	e3040eac 	movw	r0, #20140	; 0x4eac
	
	time = getCycles() - time;
	printf ("Elapsed Time: %d cycles\n", time); */
	
	do{
		start = 0;
    130c:	e50b4034 	str	r4, [r11, #-52]	; 0xffffffcc
		printf("\nPress 1 to start:");
    1310:	e3400001 	movt	r0, #1
    1314:	eb0005bb 	bl	2a08 <printf>
		scanf("%d", &start);
    1318:	e3040ea4 	movw	r0, #20132	; 0x4ea4
    131c:	e24b1034 	sub	r1, r11, #52	; 0x34
    1320:	e3400001 	movt	r0, #1
    1324:	eb0005f5 	bl	2b00 <scanf>
        scanf("%c", &junk);
    1328:	e3040ea8 	movw	r0, #20136	; 0x4ea8
    132c:	e24b1030 	sub	r1, r11, #48	; 0x30
    1330:	e3400001 	movt	r0, #1
    1334:	eb0005f1 	bl	2b00 <scanf>
	}while(start != 1);
    1338:	e51b3034 	ldr	r3, [r11, #-52]	; 0xffffffcc
    133c:	e3530001 	cmp	r3, #1
    1340:	1afffff0 	bne	1308 <main+0x140>

static inline unsigned int getCycles ()
{
  unsigned int cycleCount;
  // Read CCNT register
  asm volatile ("MRC p15, 0, %0, c9, c13, 0\t\n": "=r"(cycleCount));  
    1344:	ee197f1d 	mrc	15, 0, r7, cr9, cr13, {0}
		scanf("%d", &start);
        scanf("%c", &junk);
	}while(start != 1);
	time = getCycles();
	
	if(*(lval)==1){
    1348:	e51ba050 	ldr	r10, [r11, #-80]	; 0xffffffb0

static inline unsigned int getCycles ()
{
  unsigned int cycleCount;
  // Read CCNT register
  asm volatile ("MRC p15, 0, %0, c9, c13, 0\t\n": "=r"(cycleCount));  
    134c:	e50b7084 	str	r7, [r11, #-132]	; 0xffffff7c
		scanf("%d", &start);
        scanf("%c", &junk);
	}while(start != 1);
	time = getCycles();
	
	if(*(lval)==1){
    1350:	e51a38d0 	ldr	r3, [r10, #-2256]	; 0xfffff730
    1354:	e5932000 	ldr	r2, [r3]
    1358:	e3520001 	cmp	r2, #1
    135c:	0a00003a 	beq	144c <main+0x284>
		while(*(lval)!=0){
		}
	}
	//printf("\nThe ccd_dval value is%d\n", *(lval));
	if(*(lval)==0){
    1360:	e5932000 	ldr	r2, [r3]
    1364:	e3520000 	cmp	r2, #0
    1368:	0a000030 	beq	1430 <main+0x268>
    136c:	e51bc050 	ldr	r12, [r11, #-80]	; 0xffffffb0
    1370:	e51c38cc 	ldr	r3, [r12, #-2252]	; 0xfffff734
		while(*(lval)!=1){
		}
	} 
	//printf("\nThe ccd_dval value is%d\n", *(lval));
	while (*(vgaread)!=0) {
    1374:	e5931000 	ldr	r1, [r3]
    1378:	e3510000 	cmp	r1, #0
    137c:	1afffffc 	bne	1374 <main+0x1ac>
    }

    //after this while loop, the read has been asserted low, now capture image
		
		*(fifowe) = 0;
    1380:	e51b4050 	ldr	r4, [r11, #-80]	; 0xffffffb0
		*(ready) = 0;
		*(ready) = 1;
    1384:	e3a03001 	mov	r3, #1
    1388:	e51b7050 	ldr	r7, [r11, #-80]	; 0xffffffb0
				hardImage[m][n] =  *(binary);
 				//if(*(binary) == 1023)
					//hardImage[m][n] = 1;
				//if(*(binary) == 0)
					//hardImage[m][n] = 0;
				*(sdramclock) = 1;
    138c:	e1a0e003 	mov	lr, r3
	while (*(vgaread)!=0) {
    }

    //after this while loop, the read has been asserted low, now capture image
		
		*(fifowe) = 0;
    1390:	e51458dc 	ldr	r5, [r4, #-2268]	; 0xfffff724
		*(ready) = 0;
    1394:	e51408e0 	ldr	r0, [r4, #-2272]	; 0xfffff720
		start = 0;
		printf("\nPress 1 when vga ready:");
		scanf("%d", &start);
		scanf("%c", &junk);
	}while(start != 1);
	*(muxswitch) = 0;
    1398:	e1a04001 	mov	r4, r1
    139c:	e51728c8 	ldr	r2, [r7, #-2248]	; 0xfffff738
    13a0:	e517c8c4 	ldr	r12, [r7, #-2244]	; 0xfffff73c
	while (*(vgaread)!=0) {
    }

    //after this while loop, the read has been asserted low, now capture image
		
		*(fifowe) = 0;
    13a4:	e5851000 	str	r1, [r5]
		*(ready) = 0;
    13a8:	e5801000 	str	r1, [r0]
    13ac:	e59f1478 	ldr	r1, [pc, #1144]	; 182c <main+0x664>
		*(ready) = 1;
    13b0:	e5803000 	str	r3, [r0]
		start = 0;
		printf("\nPress 1 when vga ready:");
		scanf("%d", &start);
		scanf("%c", &junk);
	}while(start != 1);
	*(muxswitch) = 0;
    13b4:	e3a03000 	mov	r3, #0
		*(fifowe) = 0;
		*(ready) = 0;
		*(ready) = 1;
		for(m = 0;m < 480; m++){
			for(n = 0;n < 640; n++){
				*(sdramclock) = 0;
    13b8:	e5824000 	str	r4, [r2]
				hardImage[m][n] =  *(binary);
 				//if(*(binary) == 1023)
					//hardImage[m][n] = 1;
				//if(*(binary) == 0)
					//hardImage[m][n] = 0;
				*(sdramclock) = 1;
    13bc:	e3a00001 	mov	r0, #1
		*(ready) = 0;
		*(ready) = 1;
		for(m = 0;m < 480; m++){
			for(n = 0;n < 640; n++){
				*(sdramclock) = 0;
				hardImage[m][n] =  *(binary);
    13c0:	e59c7000 	ldr	r7, [r12]
    13c4:	e7817003 	str	r7, [r1, r3]
    13c8:	e2833004 	add	r3, r3, #4
		
		*(fifowe) = 0;
		*(ready) = 0;
		*(ready) = 1;
		for(m = 0;m < 480; m++){
			for(n = 0;n < 640; n++){
    13cc:	e3530c0a 	cmp	r3, #2560	; 0xa00
				hardImage[m][n] =  *(binary);
 				//if(*(binary) == 1023)
					//hardImage[m][n] = 1;
				//if(*(binary) == 0)
					//hardImage[m][n] = 0;
				*(sdramclock) = 1;
    13d0:	e582e000 	str	lr, [r2]
		
		*(fifowe) = 0;
		*(ready) = 0;
		*(ready) = 1;
		for(m = 0;m < 480; m++){
			for(n = 0;n < 640; n++){
    13d4:	1afffff7 	bne	13b8 <main+0x1f0>
    //after this while loop, the read has been asserted low, now capture image
		
		*(fifowe) = 0;
		*(ready) = 0;
		*(ready) = 1;
		for(m = 0;m < 480; m++){
    13d8:	e59fa450 	ldr	r10, [pc, #1104]	; 1830 <main+0x668>
    13dc:	e2811c0a 	add	r1, r1, #2560	; 0xa00
    13e0:	e151000a 	cmp	r1, r10
    13e4:	1afffff2 	bne	13b4 <main+0x1ec>
		//time = getCycles();
		//time = getCycles() - time;
		//printf ("Elapsed Image Store Time: %d cycles\n", time - OH);
	*(fifowe) = 1;
	//time = getCycles();
	*(hwreset) = 0;
    13e8:	e51bc050 	ldr	r12, [r11, #-80]	; 0xffffffb0
	*(hwreset) = 1;	
	if(flag == 1){
    13ec:	e3560001 	cmp	r6, #1
		//time = getCycles();
		//time = getCycles() - time;
		//printf ("Elapsed Image Store Time: %d cycles\n", time - OH);
	*(fifowe) = 1;
	//time = getCycles();
	*(hwreset) = 0;
    13f0:	e3a02000 	mov	r2, #0
    13f4:	e51c38e8 	ldr	r3, [r12, #-2280]	; 0xfffff718
		//printf ("Elapsed Reading Time: %d cycles\n", time - OH);
		
		//time = getCycles();
		//time = getCycles() - time;
		//printf ("Elapsed Image Store Time: %d cycles\n", time - OH);
	*(fifowe) = 1;
    13f8:	e5850000 	str	r0, [r5]
	//time = getCycles();
	*(hwreset) = 0;
    13fc:	e5832000 	str	r2, [r3]
	*(hwreset) = 1;	
    1400:	e5830000 	str	r0, [r3]
	if(flag == 1){
    1404:	0a000014 	beq	145c <main+0x294>
		roiDetection();
	}
	else{
		flag = 1;
		errorDet=true;
    1408:	e51b506c 	ldr	r5, [r11, #-108]	; 0xffffff94
    140c:	e5c50ae0 	strb	r0, [r5, #2784]	; 0xae0
	time = getCycles() - time;
	printf ("\nNumber=%d\nElapsed Digit Detection Time: %d cycles\n", finalDigitToPrint ,time- OH);
    //end digit detection
	}
	else
		printf("ERROR: Please Try Again\n");
    1410:	e3040ef4 	movw	r0, #20212	; 0x4ef4
    1414:	e3400001 	movt	r0, #1
    1418:	eb0005b3 	bl	2aec <puts>
    141c:	e3a06001 	mov	r6, #1
    1420:	e51ba050 	ldr	r10, [r11, #-80]	; 0xffffffb0
    1424:	e51b4068 	ldr	r4, [r11, #-104]	; 0xffffff98
    1428:	e51b506c 	ldr	r5, [r11, #-108]	; 0xffffff94
    142c:	eaffff9a 	b	129c <main+0xd4>
		while(*(lval)!=0){
		}
	}
	//printf("\nThe ccd_dval value is%d\n", *(lval));
	if(*(lval)==0){
		while(*(lval)!=1){
    1430:	e5932000 	ldr	r2, [r3]
    1434:	e3520001 	cmp	r2, #1
    1438:	0affffcb 	beq	136c <main+0x1a4>
    143c:	e5932000 	ldr	r2, [r3]
    1440:	e3520001 	cmp	r2, #1
    1444:	1afffff9 	bne	1430 <main+0x268>
    1448:	eaffffc7 	b	136c <main+0x1a4>
        scanf("%c", &junk);
	}while(start != 1);
	time = getCycles();
	
	if(*(lval)==1){
		while(*(lval)!=0){
    144c:	e5932000 	ldr	r2, [r3]
    1450:	e3520000 	cmp	r2, #0
    1454:	1afffffc 	bne	144c <main+0x284>
    1458:	eaffffc0 	b	1360 <main+0x198>
	*(fifowe) = 1;
	//time = getCycles();
	*(hwreset) = 0;
	*(hwreset) = 1;	
	if(flag == 1){
		roiDetection();
    145c:	ebfffeb8 	bl	f44 <roiDetection>
	
	//time = getCycles() - time;
	//printf ("Elapsed ROI Time: %d cycles\n", time - OH);	
	//printf("Hardware topedge is %d \n", *(topedgehw));
	
	if(errorDet == false){
    1460:	e51b406c 	ldr	r4, [r11, #-108]	; 0xffffff94
    1464:	e30638ac 	movw	r3, #26796	; 0x68ac
    1468:	e340302c 	movt	r3, #44	; 0x2c
    146c:	e5d42ae0 	ldrb	r2, [r4, #2784]	; 0xae0
    1470:	e3520000 	cmp	r2, #0
    1474:	1affffe5 	bne	1410 <main+0x248>
    int roiHeight=finalBottomEdge-finalTopEdge;
    int roiWidth=finalSecondEdge-finalFirstEdge;
    1478:	e5935adc 	ldr	r5, [r3, #2780]	; 0xadc
    147c:	e5932ae8 	ldr	r2, [r3, #2792]	; 0xae8
	//time = getCycles() - time;
	//printf ("Elapsed ROI Time: %d cycles\n", time - OH);	
	//printf("Hardware topedge is %d \n", *(topedgehw));
	
	if(errorDet == false){
    int roiHeight=finalBottomEdge-finalTopEdge;
    1480:	e5937ad4 	ldr	r7, [r3, #2772]	; 0xad4
    1484:	e5933ae4 	ldr	r3, [r3, #2788]	; 0xae4
    int roiWidth=finalSecondEdge-finalFirstEdge;
    1488:	e0652002 	rsb	r2, r5, r2
    float digitsFloat=((float)(roiWidth)/(float)(roiHeight));//subtract padding for digit calc
    148c:	e1a00002 	mov	r0, r2
	//printf ("Elapsed ROI Time: %d cycles\n", time - OH);	
	//printf("Hardware topedge is %d \n", *(topedgehw));
	
	if(errorDet == false){
    int roiHeight=finalBottomEdge-finalTopEdge;
    int roiWidth=finalSecondEdge-finalFirstEdge;
    1490:	e50b207c 	str	r2, [r11, #-124]	; 0xffffff84
	//time = getCycles() - time;
	//printf ("Elapsed ROI Time: %d cycles\n", time - OH);	
	//printf("Hardware topedge is %d \n", *(topedgehw));
	
	if(errorDet == false){
    int roiHeight=finalBottomEdge-finalTopEdge;
    1494:	e0673003 	rsb	r3, r7, r3
    1498:	e50b705c 	str	r7, [r11, #-92]	; 0xffffffa4
    149c:	e50b3070 	str	r3, [r11, #-112]	; 0xffffff90
    int roiWidth=finalSecondEdge-finalFirstEdge;
    float digitsFloat=((float)(roiWidth)/(float)(roiHeight));//subtract padding for digit calc
    14a0:	eb000441 	bl	25ac <__aeabi_i2f>
    14a4:	e1a04000 	mov	r4, r0
    14a8:	e51b0070 	ldr	r0, [r11, #-112]	; 0xffffff90
    14ac:	eb00043e 	bl	25ac <__aeabi_i2f>
    14b0:	e1a01000 	mov	r1, r0
    14b4:	e1a00004 	mov	r0, r4
    14b8:	eb0004d8 	bl	2820 <__aeabi_fdiv>
    int digits=(int)(digitsFloat+.5);
    14bc:	eb00020a 	bl	1cec <__aeabi_f2d>
    14c0:	e3a03000 	mov	r3, #0
    14c4:	e3a02000 	mov	r2, #0
    14c8:	e3433fe0 	movt	r3, #16352	; 0x3fe0
    14cc:	eb00012f 	bl	1990 <__adddf3>
    14d0:	eb0003aa 	bl	2380 <__aeabi_d2iz>
    14d4:	e3500005 	cmp	r0, #5
    14d8:	a3a00005 	movge	r0, #5
    //printf("digits=%d\n",digits);
    if(digits>5)
		digits=5;
	
	//time = getCycles();
    for (i=1; i<digits+1; i++) {
    14dc:	e3500000 	cmp	r0, #0
    14e0:	e50b0078 	str	r0, [r11, #-120]	; 0xffffff88
    14e4:	c50b6074 	strgt	r6, [r11, #-116]	; 0xffffff8c
    14e8:	c51ba06c 	ldrgt	r10, [r11, #-108]	; 0xffffff94
    14ec:	da0000c3 	ble	1800 <main+0x638>

void roiPrint(int roiWidth, int roiHeight,int whichDigit, int digits){
    //unsigned char buffer;
    int buffer;
    //unsigned char		dummy;
    unsigned char roiArray[roiHeight][roiWidth/digits];//row, col
    14f0:	e51b1078 	ldr	r1, [r11, #-120]	; 0xffffff88
    14f4:	e51b007c 	ldr	r0, [r11, #-124]	; 0xffffff84
    14f8:	eb0000ce 	bl	1838 <__aeabi_idiv>
    14fc:	e51b7070 	ldr	r7, [r11, #-112]	; 0xffffff90
    1500:	e1a09000 	mov	r9, r0
    int digitWidth=roiWidth/digits;//width of a digit TODO: pass in digit calc, dont hardcode
    int digitOffset=(whichDigit-1)*digitWidth;//digit offset from start of roi is width of a digit*the digit needed-1
    //fseek(inputFile,(startRoi+(roiHeight*finalCols))+digitOffset,SEEK_SET);//seek to start of top of digit
    int i,j;
    int rowStart=finalTopEdge;
    int colStart=finalLeftEdge+finalFirstEdge+digitOffset;
    1504:	e59a1ad8 	ldr	r1, [r10, #2776]	; 0xad8
    finalCols=640;
    
}


int main(void){
    1508:	e51bc074 	ldr	r12, [r11, #-116]	; 0xffffff8c
    //fseek(inputFile,(startRoi+(roiHeight*finalCols))+digitOffset,SEEK_SET);//seek to start of top of digit
    int i,j;
    int rowStart=finalTopEdge;
    int colStart=finalLeftEdge+finalFirstEdge+digitOffset;
    //printf("width=%d height=%d\n",roiWidth, roiHeight);
    for (i=0; i<roiHeight; i++) {
    150c:	e3570000 	cmp	r7, #0
    1510:	e50bd088 	str	sp, [r11, #-136]	; 0xffffff78

void roiPrint(int roiWidth, int roiHeight,int whichDigit, int digits){
    //unsigned char buffer;
    int buffer;
    //unsigned char		dummy;
    unsigned char roiArray[roiHeight][roiWidth/digits];//row, col
    1514:	e0020097 	mul	r2, r7, r0
    int digitWidth=roiWidth/digits;//width of a digit TODO: pass in digit calc, dont hardcode
    int digitOffset=(whichDigit-1)*digitWidth;//digit offset from start of roi is width of a digit*the digit needed-1
    //fseek(inputFile,(startRoi+(roiHeight*finalCols))+digitOffset,SEEK_SET);//seek to start of top of digit
    int i,j;
    int rowStart=finalTopEdge;
    int colStart=finalLeftEdge+finalFirstEdge+digitOffset;
    1518:	e0855001 	add	r5, r5, r1
    finalCols=640;
    
}


int main(void){
    151c:	e24c3001 	sub	r3, r12, #1
    int digitWidth=roiWidth/digits;//width of a digit TODO: pass in digit calc, dont hardcode
    int digitOffset=(whichDigit-1)*digitWidth;//digit offset from start of roi is width of a digit*the digit needed-1
    //fseek(inputFile,(startRoi+(roiHeight*finalCols))+digitOffset,SEEK_SET);//seek to start of top of digit
    int i,j;
    int rowStart=finalTopEdge;
    int colStart=finalLeftEdge+finalFirstEdge+digitOffset;
    1520:	e0255093 	mla	r5, r3, r0, r5

void roiPrint(int roiWidth, int roiHeight,int whichDigit, int digits){
    //unsigned char buffer;
    int buffer;
    //unsigned char		dummy;
    unsigned char roiArray[roiHeight][roiWidth/digits];//row, col
    1524:	e2822007 	add	r2, r2, #7
    1528:	e3c22007 	bic	r2, r2, #7
    152c:	e04dd002 	sub	sp, sp, r2
    int digitWidth=roiWidth/digits;//width of a digit TODO: pass in digit calc, dont hardcode
    int digitOffset=(whichDigit-1)*digitWidth;//digit offset from start of roi is width of a digit*the digit needed-1
    //fseek(inputFile,(startRoi+(roiHeight*finalCols))+digitOffset,SEEK_SET);//seek to start of top of digit
    int i,j;
    int rowStart=finalTopEdge;
    int colStart=finalLeftEdge+finalFirstEdge+digitOffset;
    1530:	e50b5054 	str	r5, [r11, #-84]	; 0xffffffac

void roiPrint(int roiWidth, int roiHeight,int whichDigit, int digits){
    //unsigned char buffer;
    int buffer;
    //unsigned char		dummy;
    unsigned char roiArray[roiHeight][roiWidth/digits];//row, col
    1534:	e50bd060 	str	sp, [r11, #-96]	; 0xffffffa0
    //fseek(inputFile,(startRoi+(roiHeight*finalCols))+digitOffset,SEEK_SET);//seek to start of top of digit
    int i,j;
    int rowStart=finalTopEdge;
    int colStart=finalLeftEdge+finalFirstEdge+digitOffset;
    //printf("width=%d height=%d\n",roiWidth, roiHeight);
    for (i=0; i<roiHeight; i++) {
    1538:	da00004e 	ble	1678 <main+0x4b0>
    finalCols=640;
    
}


int main(void){
    153c:	e51b405c 	ldr	r4, [r11, #-92]	; 0xffffffa4
    1540:	e2403009 	sub	r3, r0, #9
    1544:	e3c33007 	bic	r3, r3, #7
    1548:	e1a0100d 	mov	r1, sp
    154c:	e2833008 	add	r3, r3, #8
    1550:	e087e004 	add	lr, r7, r4
    1554:	e50b3040 	str	r3, [r11, #-64]	; 0xffffffc0
    1558:	e50be064 	str	lr, [r11, #-100]	; 0xffffff9c
    155c:	e50b4044 	str	r4, [r11, #-68]	; 0xffffffbc
    1560:	e51b5044 	ldr	r5, [r11, #-68]	; 0xffffffbc
    int i,j;
    int rowStart=finalTopEdge;
    int colStart=finalLeftEdge+finalFirstEdge+digitOffset;
    //printf("width=%d height=%d\n",roiWidth, roiHeight);
    for (i=0; i<roiHeight; i++) {
        for (j=0; j<roiWidth/digits; j++) {
    1564:	e3590000 	cmp	r9, #0
    finalCols=640;
    
}


int main(void){
    1568:	e51b705c 	ldr	r7, [r11, #-92]	; 0xffffffa4
    156c:	e0670005 	rsb	r0, r7, r5
    int i,j;
    int rowStart=finalTopEdge;
    int colStart=finalLeftEdge+finalFirstEdge+digitOffset;
    //printf("width=%d height=%d\n",roiWidth, roiHeight);
    for (i=0; i<roiHeight; i++) {
        for (j=0; j<roiWidth/digits; j++) {
    1570:	da000039 	ble	165c <main+0x494>
    1574:	e3590008 	cmp	r9, #8
    1578:	da000099 	ble	17e4 <main+0x61c>
    finalCols=640;
    
}


int main(void){
    157c:	e51be044 	ldr	lr, [r11, #-68]	; 0xffffffbc
    1580:	e3a03000 	mov	r3, #0
    1584:	e51b2044 	ldr	r2, [r11, #-68]	; 0xffffffbc
    1588:	e51b5048 	ldr	r5, [r11, #-72]	; 0xffffffb8
    158c:	e51bc054 	ldr	r12, [r11, #-84]	; 0xffffffac
    1590:	e1a0e10e 	lsl	lr, lr, #2
    1594:	e51b4060 	ldr	r4, [r11, #-96]	; 0xffffffa0
    1598:	e50b9058 	str	r9, [r11, #-88]	; 0xffffffa8
    159c:	e08ea002 	add	r10, lr, r2
    15a0:	e50be04c 	str	lr, [r11, #-76]	; 0xffffffb4
    15a4:	e1a0a38a 	lsl	r10, r10, #7
    15a8:	e08a200c 	add	r2, r10, r12
    15ac:	e50ba03c 	str	r10, [r11, #-60]	; 0xffffffc4
    15b0:	e51ba040 	ldr	r10, [r11, #-64]	; 0xffffffc0
    15b4:	e0852102 	add	r2, r5, r2, lsl #2
    15b8:	e0204990 	mla	r0, r0, r9, r4
    15bc:	e1a09005 	mov	r9, r5
    15c0:	e51b703c 	ldr	r7, [r11, #-60]	; 0xffffffc4
    15c4:	e2800008 	add	r0, r0, #8
            buffer=hardImage[rowStart][colStart];
            //if (buffer==1) {
            //    buffer=1;
            //}
            //printf("%d",buffer);
            roiArray[i][j]=buffer;
    15c8:	e5924000 	ldr	r4, [r2]
    15cc:	e2822020 	add	r2, r2, #32
    15d0:	e512801c 	ldr	r8, [r2, #-28]	; 0xffffffe4
    finalCols=640;
    
}


int main(void){
    15d4:	e087e00c 	add	lr, r7, r12
            buffer=hardImage[rowStart][colStart];
            //if (buffer==1) {
            //    buffer=1;
            //}
            //printf("%d",buffer);
            roiArray[i][j]=buffer;
    15d8:	e5126014 	ldr	r6, [r2, #-20]	; 0xffffffec
    finalCols=640;
    
}


int main(void){
    15dc:	e089e10e 	add	lr, r9, lr, lsl #2
            buffer=hardImage[rowStart][colStart];
            //if (buffer==1) {
            //    buffer=1;
            //}
            //printf("%d",buffer);
            roiArray[i][j]=buffer;
    15e0:	e7c14003 	strb	r4, [r1, r3]
    15e4:	e5127018 	ldr	r7, [r2, #-24]	; 0xffffffe8
    finalCols=640;
    
}


int main(void){
    15e8:	e2833008 	add	r3, r3, #8
    15ec:	f5def088 	pld	[lr, #136]	; 0x88
            buffer=hardImage[rowStart][colStart];
            //if (buffer==1) {
            //    buffer=1;
            //}
            //printf("%d",buffer);
            roiArray[i][j]=buffer;
    15f0:	e512e008 	ldr	lr, [r2, #-8]
    15f4:	e5125010 	ldr	r5, [r2, #-16]
    15f8:	e153000a 	cmp	r3, r10
    15fc:	e512400c 	ldr	r4, [r2, #-12]
    finalCols=640;
    
}


int main(void){
    1600:	e28cc008 	add	r12, r12, #8
            buffer=hardImage[rowStart][colStart];
            //if (buffer==1) {
            //    buffer=1;
            //}
            //printf("%d",buffer);
            roiArray[i][j]=buffer;
    1604:	e540e002 	strb	lr, [r0, #-2]
    1608:	e5408007 	strb	r8, [r0, #-7]
    160c:	e512e004 	ldr	lr, [r2, #-4]
    1610:	e5407006 	strb	r7, [r0, #-6]
    1614:	e5406005 	strb	r6, [r0, #-5]
    1618:	e5405004 	strb	r5, [r0, #-4]
    161c:	e5404003 	strb	r4, [r0, #-3]
    1620:	e540e001 	strb	lr, [r0, #-1]
    1624:	1affffe5 	bne	15c0 <main+0x3f8>
    1628:	e51b9058 	ldr	r9, [r11, #-88]	; 0xffffffa8
    162c:	e51b404c 	ldr	r4, [r11, #-76]	; 0xffffffb4
    finalCols=640;
    
}


int main(void){
    1630:	e51b5044 	ldr	r5, [r11, #-68]	; 0xffffffbc
    1634:	e51b7048 	ldr	r7, [r11, #-72]	; 0xffffffb8
    1638:	e0842005 	add	r2, r4, r5
    163c:	e08c2382 	add	r2, r12, r2, lsl #7
    1640:	e0872102 	add	r2, r7, r2, lsl #2
    1644:	e2422004 	sub	r2, r2, #4
            buffer=hardImage[rowStart][colStart];
            //if (buffer==1) {
            //    buffer=1;
            //}
            //printf("%d",buffer);
            roiArray[i][j]=buffer;
    1648:	e5b20004 	ldr	r0, [r2, #4]!
    164c:	e7c10003 	strb	r0, [r1, r3]
    int i,j;
    int rowStart=finalTopEdge;
    int colStart=finalLeftEdge+finalFirstEdge+digitOffset;
    //printf("width=%d height=%d\n",roiWidth, roiHeight);
    for (i=0; i<roiHeight; i++) {
        for (j=0; j<roiWidth/digits; j++) {
    1650:	e2833001 	add	r3, r3, #1
    1654:	e1530009 	cmp	r3, r9
    1658:	bafffffa 	blt	1648 <main+0x480>
            colStart++;
        }
        //printf("1\n");
        colStart=finalLeftEdge+finalFirstEdge+digitOffset;
        //fseek(inputFile,-finalCols-roiWidth/3,SEEK_CUR);
        rowStart++;
    165c:	e51ba044 	ldr	r10, [r11, #-68]	; 0xffffffbc
    1660:	e0811009 	add	r1, r1, r9
    //fseek(inputFile,(startRoi+(roiHeight*finalCols))+digitOffset,SEEK_SET);//seek to start of top of digit
    int i,j;
    int rowStart=finalTopEdge;
    int colStart=finalLeftEdge+finalFirstEdge+digitOffset;
    //printf("width=%d height=%d\n",roiWidth, roiHeight);
    for (i=0; i<roiHeight; i++) {
    1664:	e51bc064 	ldr	r12, [r11, #-100]	; 0xffffff9c
            colStart++;
        }
        //printf("1\n");
        colStart=finalLeftEdge+finalFirstEdge+digitOffset;
        //fseek(inputFile,-finalCols-roiWidth/3,SEEK_CUR);
        rowStart++;
    1668:	e28aa001 	add	r10, r10, #1
    //fseek(inputFile,(startRoi+(roiHeight*finalCols))+digitOffset,SEEK_SET);//seek to start of top of digit
    int i,j;
    int rowStart=finalTopEdge;
    int colStart=finalLeftEdge+finalFirstEdge+digitOffset;
    //printf("width=%d height=%d\n",roiWidth, roiHeight);
    for (i=0; i<roiHeight; i++) {
    166c:	e15a000c 	cmp	r10, r12
            colStart++;
        }
        //printf("1\n");
        colStart=finalLeftEdge+finalFirstEdge+digitOffset;
        //fseek(inputFile,-finalCols-roiWidth/3,SEEK_CUR);
        rowStart++;
    1670:	e50ba044 	str	r10, [r11, #-68]	; 0xffffffbc
    //fseek(inputFile,(startRoi+(roiHeight*finalCols))+digitOffset,SEEK_SET);//seek to start of top of digit
    int i,j;
    int rowStart=finalTopEdge;
    int colStart=finalLeftEdge+finalFirstEdge+digitOffset;
    //printf("width=%d height=%d\n",roiWidth, roiHeight);
    for (i=0; i<roiHeight; i++) {
    1674:	1affffb9 	bne	1560 <main+0x398>
        colStart=finalLeftEdge+finalFirstEdge+digitOffset;
        //fseek(inputFile,-finalCols-roiWidth/3,SEEK_CUR);
        rowStart++;
    }
    //printing roi works now try resize
    double rowScale=28.0/(double)roiHeight;
    1678:	e51b0070 	ldr	r0, [r11, #-112]	; 0xffffff90
    double colScale=28.0/(double)digitWidth;
    int curRow=0;//=(1.0/rowScale)+1;//ceiling of 1/rowscale*i
    int curCol=0;//=(int)((1.0/colScale))+1;
    for (i=0; i<28; i++) {
    167c:	e3a07000 	mov	r7, #0
        colStart=finalLeftEdge+finalFirstEdge+digitOffset;
        //fseek(inputFile,-finalCols-roiWidth/3,SEEK_CUR);
        rowStart++;
    }
    //printing roi works now try resize
    double rowScale=28.0/(double)roiHeight;
    1680:	eb00018f 	bl	1cc4 <__aeabi_i2d>
    1684:	e1a03001 	mov	r3, r1
    1688:	e3a01000 	mov	r1, #0
    168c:	e1a02000 	mov	r2, r0
    1690:	e344103c 	movt	r1, #16444	; 0x403c
    1694:	e3a00000 	mov	r0, #0
    1698:	eb000264 	bl	2030 <__aeabi_ddiv>
    169c:	e1a03001 	mov	r3, r1
    16a0:	e3a01000 	mov	r1, #0
    16a4:	e1a02000 	mov	r2, r0
    16a8:	e3431ff0 	movt	r1, #16368	; 0x3ff0
    16ac:	e3a00000 	mov	r0, #0
    16b0:	eb00025e 	bl	2030 <__aeabi_ddiv>
    16b4:	e14b03fc 	strd	r0, [r11, #-60]	; 0xffffffc4
    double colScale=28.0/(double)digitWidth;
    16b8:	e1a00009 	mov	r0, r9
    16bc:	eb000180 	bl	1cc4 <__aeabi_i2d>
    16c0:	e1a03001 	mov	r3, r1
    16c4:	e3a01000 	mov	r1, #0
    16c8:	e1a02000 	mov	r2, r0
    16cc:	e344103c 	movt	r1, #16444	; 0x403c
    16d0:	e3a00000 	mov	r0, #0
    16d4:	eb000255 	bl	2030 <__aeabi_ddiv>
    16d8:	e1a03001 	mov	r3, r1
    16dc:	e3a01000 	mov	r1, #0
    16e0:	e1a02000 	mov	r2, r0
    16e4:	e3431ff0 	movt	r1, #16368	; 0x3ff0
    16e8:	e3a00000 	mov	r0, #0
    16ec:	eb00024f 	bl	2030 <__aeabi_ddiv>
    16f0:	e1a04000 	mov	r4, r0
    16f4:	e1a05001 	mov	r5, r1
    int curRow=0;//=(1.0/rowScale)+1;//ceiling of 1/rowscale*i
    int curCol=0;//=(int)((1.0/colScale))+1;
    for (i=0; i<28; i++) {
        curRow=(int)(1.0/rowScale * (double)(i+1))-1;
    16f8:	e2878001 	add	r8, r7, #1
    finalCols=640;
    
}


int main(void){
    16fc:	e0677187 	rsb	r7, r7, r7, lsl #3
    double rowScale=28.0/(double)roiHeight;
    double colScale=28.0/(double)digitWidth;
    int curRow=0;//=(1.0/rowScale)+1;//ceiling of 1/rowscale*i
    int curCol=0;//=(int)((1.0/colScale))+1;
    for (i=0; i<28; i++) {
        curRow=(int)(1.0/rowScale * (double)(i+1))-1;
    1700:	e1a00008 	mov	r0, r8
    1704:	eb00016e 	bl	1cc4 <__aeabi_i2d>
    1708:	e14b23dc 	ldrd	r2, [r11, #-60]	; 0xffffffc4
        for (j=0; j<28; j++) {
    170c:	e3a06000 	mov	r6, #0
    double rowScale=28.0/(double)roiHeight;
    double colScale=28.0/(double)digitWidth;
    int curRow=0;//=(1.0/rowScale)+1;//ceiling of 1/rowscale*i
    int curCol=0;//=(int)((1.0/colScale))+1;
    for (i=0; i<28; i++) {
        curRow=(int)(1.0/rowScale * (double)(i+1))-1;
    1710:	eb0001a2 	bl	1da0 <__aeabi_dmul>
    1714:	eb000319 	bl	2380 <__aeabi_d2iz>
    finalCols=640;
    
}


int main(void){
    1718:	e51ba068 	ldr	r10, [r11, #-104]	; 0xffffff98
    double rowScale=28.0/(double)roiHeight;
    double colScale=28.0/(double)digitWidth;
    int curRow=0;//=(1.0/rowScale)+1;//ceiling of 1/rowscale*i
    int curCol=0;//=(int)((1.0/colScale))+1;
    for (i=0; i<28; i++) {
        curRow=(int)(1.0/rowScale * (double)(i+1))-1;
    171c:	e2400001 	sub	r0, r0, #1
    finalCols=640;
    
}


int main(void){
    1720:	e08ac107 	add	r12, r10, r7, lsl #2
    int curCol=0;//=(int)((1.0/colScale))+1;
    for (i=0; i<28; i++) {
        curRow=(int)(1.0/rowScale * (double)(i+1))-1;
        for (j=0; j<28; j++) {
            curCol=(int)((1.0/colScale * (double)(j+1)))-1;
            smallImage[i][j]=roiArray[curRow][curCol];
    1724:	e51ba060 	ldr	r10, [r11, #-96]	; 0xffffffa0
    1728:	e027a990 	mla	r7, r0, r9, r10
    finalCols=640;
    
}


int main(void){
    172c:	e24ca001 	sub	r10, r12, #1
    int curRow=0;//=(1.0/rowScale)+1;//ceiling of 1/rowscale*i
    int curCol=0;//=(int)((1.0/colScale))+1;
    for (i=0; i<28; i++) {
        curRow=(int)(1.0/rowScale * (double)(i+1))-1;
        for (j=0; j<28; j++) {
            curCol=(int)((1.0/colScale * (double)(j+1)))-1;
    1730:	e2866001 	add	r6, r6, #1
    1734:	e1a00006 	mov	r0, r6
    1738:	eb000161 	bl	1cc4 <__aeabi_i2d>
    173c:	e1a03005 	mov	r3, r5
    1740:	e1a02004 	mov	r2, r4
    1744:	eb000195 	bl	1da0 <__aeabi_dmul>
    1748:	eb00030c 	bl	2380 <__aeabi_d2iz>
            smallImage[i][j]=roiArray[curRow][curCol];
    174c:	e0870000 	add	r0, r7, r0
    double colScale=28.0/(double)digitWidth;
    int curRow=0;//=(1.0/rowScale)+1;//ceiling of 1/rowscale*i
    int curCol=0;//=(int)((1.0/colScale))+1;
    for (i=0; i<28; i++) {
        curRow=(int)(1.0/rowScale * (double)(i+1))-1;
        for (j=0; j<28; j++) {
    1750:	e356001c 	cmp	r6, #28
            curCol=(int)((1.0/colScale * (double)(j+1)))-1;
            smallImage[i][j]=roiArray[curRow][curCol];
    1754:	e5503001 	ldrb	r3, [r0, #-1]
    1758:	e5ea3001 	strb	r3, [r10, #1]!
    double colScale=28.0/(double)digitWidth;
    int curRow=0;//=(1.0/rowScale)+1;//ceiling of 1/rowscale*i
    int curCol=0;//=(int)((1.0/colScale))+1;
    for (i=0; i<28; i++) {
        curRow=(int)(1.0/rowScale * (double)(i+1))-1;
        for (j=0; j<28; j++) {
    175c:	1afffff3 	bne	1730 <main+0x568>
    //printing roi works now try resize
    double rowScale=28.0/(double)roiHeight;
    double colScale=28.0/(double)digitWidth;
    int curRow=0;//=(1.0/rowScale)+1;//ceiling of 1/rowscale*i
    int curCol=0;//=(int)((1.0/colScale))+1;
    for (i=0; i<28; i++) {
    1760:	e358001c 	cmp	r8, #28
    1764:	e1a07008 	mov	r7, r8
    1768:	1affffe2 	bne	16f8 <main+0x530>
    176c:	e51bd088 	ldr	sp, [r11, #-136]	; 0xffffff78
    1770:	e30a0d5c 	movw	r0, #44380	; 0xad5c
    1774:	e3e0c000 	mvn	r12, #0
    1778:	e3400019 	movt	r0, #25
    finalCols=640;
    
}


int main(void){
    177c:	e59f10b0 	ldr	r1, [pc, #176]	; 1834 <main+0x66c>
    1780:	e3a03000 	mov	r3, #0
    1784:	e081200c 	add	r2, r1, r12
    //use global 28 by 28 to convert to 784 array
    int globalIndex=0;
    int i,j;
    for (i=0; i<28; i++) {
        for (j=0; j<28; j++) {
            smallImageReshape[globalIndex]=smallImage[j][i];//take columnwise for reshape
    1788:	e7d01003 	ldrb	r1, [r0, r3]
    178c:	e283301c 	add	r3, r3, #28
void reshape(void){
    //use global 28 by 28 to convert to 784 array
    int globalIndex=0;
    int i,j;
    for (i=0; i<28; i++) {
        for (j=0; j<28; j++) {
    1790:	e3530e31 	cmp	r3, #784	; 0x310
            smallImageReshape[globalIndex]=smallImage[j][i];//take columnwise for reshape
    1794:	e5e21001 	strb	r1, [r2, #1]!
void reshape(void){
    //use global 28 by 28 to convert to 784 array
    int globalIndex=0;
    int i,j;
    for (i=0; i<28; i++) {
        for (j=0; j<28; j++) {
    1798:	1afffffa 	bne	1788 <main+0x5c0>
    179c:	e28cc01c 	add	r12, r12, #28
//digit detection
void reshape(void){
    //use global 28 by 28 to convert to 784 array
    int globalIndex=0;
    int i,j;
    for (i=0; i<28; i++) {
    17a0:	e300e30f 	movw	lr, #783	; 0x30f
    17a4:	e15c000e 	cmp	r12, lr
    17a8:	e2800001 	add	r0, r0, #1
    17ac:	1afffff2 	bne	177c <main+0x5b4>
	//time = getCycles();
    for (i=1; i<digits+1; i++) {
        roiPrint(roiWidth,roiHeight,i,digits);
        //digit detection
        reshape();
        findDigit(i);
    17b0:	e51b0074 	ldr	r0, [r11, #-116]	; 0xffffff8c
    //printf("digits=%d\n",digits);
    if(digits>5)
		digits=5;
	
	//time = getCycles();
    for (i=1; i<digits+1; i++) {
    17b4:	e2804001 	add	r4, r0, #1
    17b8:	e50b4074 	str	r4, [r11, #-116]	; 0xffffff8c
        roiPrint(roiWidth,roiHeight,i,digits);
        //digit detection
        reshape();
        findDigit(i);
    17bc:	ebfffab9 	bl	2a8 <findDigit>
    //printf("digits=%d\n",digits);
    if(digits>5)
		digits=5;
	
	//time = getCycles();
    for (i=1; i<digits+1; i++) {
    17c0:	e51b5078 	ldr	r5, [r11, #-120]	; 0xffffff88
    17c4:	e1540005 	cmp	r4, r5
    17c8:	ca00000c 	bgt	1800 <main+0x638>
    17cc:	e51b706c 	ldr	r7, [r11, #-108]	; 0xffffff94
    17d0:	e51ba06c 	ldr	r10, [r11, #-108]	; 0xffffff94
    17d4:	e5977ad4 	ldr	r7, [r7, #2772]	; 0xad4
    17d8:	e59a5adc 	ldr	r5, [r10, #2780]	; 0xadc
    17dc:	e50b705c 	str	r7, [r11, #-92]	; 0xffffffa4
    17e0:	eaffff42 	b	14f0 <main+0x328>
    17e4:	e51b0044 	ldr	r0, [r11, #-68]	; 0xffffffbc
    int i,j;
    int rowStart=finalTopEdge;
    int colStart=finalLeftEdge+finalFirstEdge+digitOffset;
    //printf("width=%d height=%d\n",roiWidth, roiHeight);
    for (i=0; i<roiHeight; i++) {
        for (j=0; j<roiWidth/digits; j++) {
    17e8:	e3a03000 	mov	r3, #0
    17ec:	e51bc054 	ldr	r12, [r11, #-84]	; 0xffffffac
    17f0:	e1a00100 	lsl	r0, r0, #2
    17f4:	e50b004c 	str	r0, [r11, #-76]	; 0xffffffb4
    17f8:	e1a04000 	mov	r4, r0
    17fc:	eaffff8b 	b	1630 <main+0x468>

static inline unsigned int getCycles ()
{
  unsigned int cycleCount;
  // Read CCNT register
  asm volatile ("MRC p15, 0, %0, c9, c13, 0\t\n": "=r"(cycleCount));  
    1800:	ee192f1d 	mrc	15, 0, r2, cr9, cr13, {0}
        roiPrint(roiWidth,roiHeight,i,digits);
        //digit detection
        reshape();
        findDigit(i);
    }
	time = getCycles() - time;
    1804:	e51ba084 	ldr	r10, [r11, #-132]	; 0xffffff7c
	printf ("\nNumber=%d\nElapsed Digit Detection Time: %d cycles\n", finalDigitToPrint ,time- OH);
    1808:	e3040ec0 	movw	r0, #20160	; 0x4ec0
    180c:	e51bc068 	ldr	r12, [r11, #-104]	; 0xffffff98
    1810:	e3400001 	movt	r0, #1
    1814:	e51b4080 	ldr	r4, [r11, #-128]	; 0xffffff80
        roiPrint(roiWidth,roiHeight,i,digits);
        //digit detection
        reshape();
        findDigit(i);
    }
	time = getCycles() - time;
    1818:	e06a2002 	rsb	r2, r10, r2
	printf ("\nNumber=%d\nElapsed Digit Detection Time: %d cycles\n", finalDigitToPrint ,time- OH);
    181c:	e59c1620 	ldr	r1, [r12, #1568]	; 0x620
    1820:	e0642002 	rsb	r2, r4, r2
    1824:	eb000477 	bl	2a08 <printf>
    1828:	eafffefb 	b	141c <main+0x254>
    182c:	0019b380 	.word	0x0019b380
    1830:	002c7380 	.word	0x002c7380
    1834:	0019b06c 	.word	0x0019b06c

00001838 <__aeabi_idiv>:
    1838:	e3510000 	cmp	r1, #0
    183c:	0a000043 	beq	1950 <.divsi3_skip_div0_test+0x110>

00001840 <.divsi3_skip_div0_test>:
    1840:	e020c001 	eor	r12, r0, r1
    1844:	42611000 	rsbmi	r1, r1, #0
    1848:	e2512001 	subs	r2, r1, #1
    184c:	0a000027 	beq	18f0 <.divsi3_skip_div0_test+0xb0>
    1850:	e1b03000 	movs	r3, r0
    1854:	42603000 	rsbmi	r3, r0, #0
    1858:	e1530001 	cmp	r3, r1
    185c:	9a000026 	bls	18fc <.divsi3_skip_div0_test+0xbc>
    1860:	e1110002 	tst	r1, r2
    1864:	0a000028 	beq	190c <.divsi3_skip_div0_test+0xcc>
    1868:	e311020e 	tst	r1, #-536870912	; 0xe0000000
    186c:	01a01181 	lsleq	r1, r1, #3
    1870:	03a02008 	moveq	r2, #8
    1874:	13a02001 	movne	r2, #1
    1878:	e3510201 	cmp	r1, #268435456	; 0x10000000
    187c:	31510003 	cmpcc	r1, r3
    1880:	31a01201 	lslcc	r1, r1, #4
    1884:	31a02202 	lslcc	r2, r2, #4
    1888:	3afffffa 	bcc	1878 <.divsi3_skip_div0_test+0x38>
    188c:	e3510102 	cmp	r1, #-2147483648	; 0x80000000
    1890:	31510003 	cmpcc	r1, r3
    1894:	31a01081 	lslcc	r1, r1, #1
    1898:	31a02082 	lslcc	r2, r2, #1
    189c:	3afffffa 	bcc	188c <.divsi3_skip_div0_test+0x4c>
    18a0:	e3a00000 	mov	r0, #0
    18a4:	e1530001 	cmp	r3, r1
    18a8:	20433001 	subcs	r3, r3, r1
    18ac:	21800002 	orrcs	r0, r0, r2
    18b0:	e15300a1 	cmp	r3, r1, lsr #1
    18b4:	204330a1 	subcs	r3, r3, r1, lsr #1
    18b8:	218000a2 	orrcs	r0, r0, r2, lsr #1
    18bc:	e1530121 	cmp	r3, r1, lsr #2
    18c0:	20433121 	subcs	r3, r3, r1, lsr #2
    18c4:	21800122 	orrcs	r0, r0, r2, lsr #2
    18c8:	e15301a1 	cmp	r3, r1, lsr #3
    18cc:	204331a1 	subcs	r3, r3, r1, lsr #3
    18d0:	218001a2 	orrcs	r0, r0, r2, lsr #3
    18d4:	e3530000 	cmp	r3, #0
    18d8:	11b02222 	lsrsne	r2, r2, #4
    18dc:	11a01221 	lsrne	r1, r1, #4
    18e0:	1affffef 	bne	18a4 <.divsi3_skip_div0_test+0x64>
    18e4:	e35c0000 	cmp	r12, #0
    18e8:	42600000 	rsbmi	r0, r0, #0
    18ec:	e12fff1e 	bx	lr
    18f0:	e13c0000 	teq	r12, r0
    18f4:	42600000 	rsbmi	r0, r0, #0
    18f8:	e12fff1e 	bx	lr
    18fc:	33a00000 	movcc	r0, #0
    1900:	01a00fcc 	asreq	r0, r12, #31
    1904:	03800001 	orreq	r0, r0, #1
    1908:	e12fff1e 	bx	lr
    190c:	e3510801 	cmp	r1, #65536	; 0x10000
    1910:	21a01821 	lsrcs	r1, r1, #16
    1914:	23a02010 	movcs	r2, #16
    1918:	33a02000 	movcc	r2, #0
    191c:	e3510c01 	cmp	r1, #256	; 0x100
    1920:	21a01421 	lsrcs	r1, r1, #8
    1924:	22822008 	addcs	r2, r2, #8
    1928:	e3510010 	cmp	r1, #16
    192c:	21a01221 	lsrcs	r1, r1, #4
    1930:	22822004 	addcs	r2, r2, #4
    1934:	e3510004 	cmp	r1, #4
    1938:	82822003 	addhi	r2, r2, #3
    193c:	908220a1 	addls	r2, r2, r1, lsr #1
    1940:	e35c0000 	cmp	r12, #0
    1944:	e1a00233 	lsr	r0, r3, r2
    1948:	42600000 	rsbmi	r0, r0, #0
    194c:	e12fff1e 	bx	lr
    1950:	e3500000 	cmp	r0, #0
    1954:	c3e00102 	mvngt	r0, #-2147483648	; 0x80000000
    1958:	b3a00102 	movlt	r0, #-2147483648	; 0x80000000
    195c:	ea000007 	b	1980 <__aeabi_idiv0>

00001960 <__aeabi_idivmod>:
    1960:	e3510000 	cmp	r1, #0
    1964:	0afffff9 	beq	1950 <.divsi3_skip_div0_test+0x110>
    1968:	e92d4003 	push	{r0, r1, lr}
    196c:	ebffffb3 	bl	1840 <.divsi3_skip_div0_test>
    1970:	e8bd4006 	pop	{r1, r2, lr}
    1974:	e0030092 	mul	r3, r2, r0
    1978:	e0411003 	sub	r1, r1, r3
    197c:	e12fff1e 	bx	lr

00001980 <__aeabi_idiv0>:
    1980:	e12fff1e 	bx	lr

00001984 <__aeabi_drsub>:
    1984:	e2211102 	eor	r1, r1, #-2147483648	; 0x80000000
    1988:	ea000000 	b	1990 <__adddf3>

0000198c <__aeabi_dsub>:
    198c:	e2233102 	eor	r3, r3, #-2147483648	; 0x80000000

00001990 <__adddf3>:
    1990:	e92d4030 	push	{r4, r5, lr}
    1994:	e1a04081 	lsl	r4, r1, #1
    1998:	e1a05083 	lsl	r5, r3, #1
    199c:	e1340005 	teq	r4, r5
    19a0:	01300002 	teqeq	r0, r2
    19a4:	1194c000 	orrsne	r12, r4, r0
    19a8:	1195c002 	orrsne	r12, r5, r2
    19ac:	11f0cac4 	mvnsne	r12, r4, asr #21
    19b0:	11f0cac5 	mvnsne	r12, r5, asr #21
    19b4:	0a00008c 	beq	1bec <__adddf3+0x25c>
    19b8:	e1a04aa4 	lsr	r4, r4, #21
    19bc:	e0745aa5 	rsbs	r5, r4, r5, lsr #21
    19c0:	b2655000 	rsblt	r5, r5, #0
    19c4:	da000006 	ble	19e4 <__adddf3+0x54>
    19c8:	e0844005 	add	r4, r4, r5
    19cc:	e0202002 	eor	r2, r0, r2
    19d0:	e0213003 	eor	r3, r1, r3
    19d4:	e0220000 	eor	r0, r2, r0
    19d8:	e0231001 	eor	r1, r3, r1
    19dc:	e0202002 	eor	r2, r0, r2
    19e0:	e0213003 	eor	r3, r1, r3
    19e4:	e3550036 	cmp	r5, #54	; 0x36
    19e8:	88bd4030 	pophi	{r4, r5, lr}
    19ec:	812fff1e 	bxhi	lr
    19f0:	e3110102 	tst	r1, #-2147483648	; 0x80000000
    19f4:	e1a01601 	lsl	r1, r1, #12
    19f8:	e3a0c601 	mov	r12, #1048576	; 0x100000
    19fc:	e18c1621 	orr	r1, r12, r1, lsr #12
    1a00:	0a000001 	beq	1a0c <__adddf3+0x7c>
    1a04:	e2700000 	rsbs	r0, r0, #0
    1a08:	e2e11000 	rsc	r1, r1, #0
    1a0c:	e3130102 	tst	r3, #-2147483648	; 0x80000000
    1a10:	e1a03603 	lsl	r3, r3, #12
    1a14:	e18c3623 	orr	r3, r12, r3, lsr #12
    1a18:	0a000001 	beq	1a24 <__adddf3+0x94>
    1a1c:	e2722000 	rsbs	r2, r2, #0
    1a20:	e2e33000 	rsc	r3, r3, #0
    1a24:	e1340005 	teq	r4, r5
    1a28:	0a000069 	beq	1bd4 <__adddf3+0x244>
    1a2c:	e2444001 	sub	r4, r4, #1
    1a30:	e275e020 	rsbs	lr, r5, #32
    1a34:	ba000005 	blt	1a50 <__adddf3+0xc0>
    1a38:	e1a0ce12 	lsl	r12, r2, lr
    1a3c:	e0900532 	adds	r0, r0, r2, lsr r5
    1a40:	e2a11000 	adc	r1, r1, #0
    1a44:	e0900e13 	adds	r0, r0, r3, lsl lr
    1a48:	e0b11553 	adcs	r1, r1, r3, asr r5
    1a4c:	ea000006 	b	1a6c <__adddf3+0xdc>
    1a50:	e2455020 	sub	r5, r5, #32
    1a54:	e28ee020 	add	lr, lr, #32
    1a58:	e3520001 	cmp	r2, #1
    1a5c:	e1a0ce13 	lsl	r12, r3, lr
    1a60:	238cc002 	orrcs	r12, r12, #2
    1a64:	e0900553 	adds	r0, r0, r3, asr r5
    1a68:	e0b11fc3 	adcs	r1, r1, r3, asr #31
    1a6c:	e2015102 	and	r5, r1, #-2147483648	; 0x80000000
    1a70:	5a000002 	bpl	1a80 <__adddf3+0xf0>
    1a74:	e27cc000 	rsbs	r12, r12, #0
    1a78:	e2f00000 	rscs	r0, r0, #0
    1a7c:	e2e11000 	rsc	r1, r1, #0
    1a80:	e3510601 	cmp	r1, #1048576	; 0x100000
    1a84:	3a00000f 	bcc	1ac8 <__adddf3+0x138>
    1a88:	e3510602 	cmp	r1, #2097152	; 0x200000
    1a8c:	3a000006 	bcc	1aac <__adddf3+0x11c>
    1a90:	e1b010a1 	lsrs	r1, r1, #1
    1a94:	e1b00060 	rrxs	r0, r0
    1a98:	e1a0c06c 	rrx	r12, r12
    1a9c:	e2844001 	add	r4, r4, #1
    1aa0:	e1a02a84 	lsl	r2, r4, #21
    1aa4:	e3720501 	cmn	r2, #4194304	; 0x400000
    1aa8:	2a00006b 	bcs	1c5c <__adddf3+0x2cc>
    1aac:	e35c0102 	cmp	r12, #-2147483648	; 0x80000000
    1ab0:	01b0c0a0 	lsrseq	r12, r0, #1
    1ab4:	e2b00000 	adcs	r0, r0, #0
    1ab8:	e0a11a04 	adc	r1, r1, r4, lsl #20
    1abc:	e1811005 	orr	r1, r1, r5
    1ac0:	e8bd4030 	pop	{r4, r5, lr}
    1ac4:	e12fff1e 	bx	lr
    1ac8:	e1b0c08c 	lsls	r12, r12, #1
    1acc:	e0b00000 	adcs	r0, r0, r0
    1ad0:	e0a11001 	adc	r1, r1, r1
    1ad4:	e3110601 	tst	r1, #1048576	; 0x100000
    1ad8:	e2444001 	sub	r4, r4, #1
    1adc:	1afffff2 	bne	1aac <__adddf3+0x11c>
    1ae0:	e3310000 	teq	r1, #0
    1ae4:	13a03014 	movne	r3, #20
    1ae8:	03a03034 	moveq	r3, #52	; 0x34
    1aec:	01a01000 	moveq	r1, r0
    1af0:	03a00000 	moveq	r0, #0
    1af4:	e1a02001 	mov	r2, r1
    1af8:	e3520801 	cmp	r2, #65536	; 0x10000
    1afc:	21a02822 	lsrcs	r2, r2, #16
    1b00:	22433010 	subcs	r3, r3, #16
    1b04:	e3520c01 	cmp	r2, #256	; 0x100
    1b08:	21a02422 	lsrcs	r2, r2, #8
    1b0c:	22433008 	subcs	r3, r3, #8
    1b10:	e3520010 	cmp	r2, #16
    1b14:	21a02222 	lsrcs	r2, r2, #4
    1b18:	22433004 	subcs	r3, r3, #4
    1b1c:	e3520004 	cmp	r2, #4
    1b20:	22433002 	subcs	r3, r3, #2
    1b24:	304330a2 	subcc	r3, r3, r2, lsr #1
    1b28:	e04331a2 	sub	r3, r3, r2, lsr #3
    1b2c:	e2532020 	subs	r2, r3, #32
    1b30:	aa000007 	bge	1b54 <__adddf3+0x1c4>
    1b34:	e292200c 	adds	r2, r2, #12
    1b38:	da000004 	ble	1b50 <__adddf3+0x1c0>
    1b3c:	e282c014 	add	r12, r2, #20
    1b40:	e262200c 	rsb	r2, r2, #12
    1b44:	e1a00c11 	lsl	r0, r1, r12
    1b48:	e1a01231 	lsr	r1, r1, r2
    1b4c:	ea000004 	b	1b64 <__adddf3+0x1d4>
    1b50:	e2822014 	add	r2, r2, #20
    1b54:	d262c020 	rsble	r12, r2, #32
    1b58:	e1a01211 	lsl	r1, r1, r2
    1b5c:	d1811c30 	orrle	r1, r1, r0, lsr r12
    1b60:	d1a00210 	lslle	r0, r0, r2
    1b64:	e0544003 	subs	r4, r4, r3
    1b68:	a0811a04 	addge	r1, r1, r4, lsl #20
    1b6c:	a1811005 	orrge	r1, r1, r5
    1b70:	a8bd4030 	popge	{r4, r5, lr}
    1b74:	a12fff1e 	bxge	lr
    1b78:	e1e04004 	mvn	r4, r4
    1b7c:	e254401f 	subs	r4, r4, #31
    1b80:	aa00000f 	bge	1bc4 <__adddf3+0x234>
    1b84:	e294400c 	adds	r4, r4, #12
    1b88:	ca000006 	bgt	1ba8 <__adddf3+0x218>
    1b8c:	e2844014 	add	r4, r4, #20
    1b90:	e2642020 	rsb	r2, r4, #32
    1b94:	e1a00430 	lsr	r0, r0, r4
    1b98:	e1800211 	orr	r0, r0, r1, lsl r2
    1b9c:	e1851431 	orr	r1, r5, r1, lsr r4
    1ba0:	e8bd4030 	pop	{r4, r5, lr}
    1ba4:	e12fff1e 	bx	lr
    1ba8:	e264400c 	rsb	r4, r4, #12
    1bac:	e2642020 	rsb	r2, r4, #32
    1bb0:	e1a00230 	lsr	r0, r0, r2
    1bb4:	e1800411 	orr	r0, r0, r1, lsl r4
    1bb8:	e1a01005 	mov	r1, r5
    1bbc:	e8bd4030 	pop	{r4, r5, lr}
    1bc0:	e12fff1e 	bx	lr
    1bc4:	e1a00431 	lsr	r0, r1, r4
    1bc8:	e1a01005 	mov	r1, r5
    1bcc:	e8bd4030 	pop	{r4, r5, lr}
    1bd0:	e12fff1e 	bx	lr
    1bd4:	e3340000 	teq	r4, #0
    1bd8:	e2233601 	eor	r3, r3, #1048576	; 0x100000
    1bdc:	02211601 	eoreq	r1, r1, #1048576	; 0x100000
    1be0:	02844001 	addeq	r4, r4, #1
    1be4:	12455001 	subne	r5, r5, #1
    1be8:	eaffff8f 	b	1a2c <__adddf3+0x9c>
    1bec:	e1f0cac4 	mvns	r12, r4, asr #21
    1bf0:	11f0cac5 	mvnsne	r12, r5, asr #21
    1bf4:	0a00001d 	beq	1c70 <__adddf3+0x2e0>
    1bf8:	e1340005 	teq	r4, r5
    1bfc:	01300002 	teqeq	r0, r2
    1c00:	0a000004 	beq	1c18 <__adddf3+0x288>
    1c04:	e194c000 	orrs	r12, r4, r0
    1c08:	01a01003 	moveq	r1, r3
    1c0c:	01a00002 	moveq	r0, r2
    1c10:	e8bd4030 	pop	{r4, r5, lr}
    1c14:	e12fff1e 	bx	lr
    1c18:	e1310003 	teq	r1, r3
    1c1c:	13a01000 	movne	r1, #0
    1c20:	13a00000 	movne	r0, #0
    1c24:	18bd4030 	popne	{r4, r5, lr}
    1c28:	112fff1e 	bxne	lr
    1c2c:	e1b0caa4 	lsrs	r12, r4, #21
    1c30:	1a000004 	bne	1c48 <__adddf3+0x2b8>
    1c34:	e1b00080 	lsls	r0, r0, #1
    1c38:	e0b11001 	adcs	r1, r1, r1
    1c3c:	23811102 	orrcs	r1, r1, #-2147483648	; 0x80000000
    1c40:	e8bd4030 	pop	{r4, r5, lr}
    1c44:	e12fff1e 	bx	lr
    1c48:	e2944501 	adds	r4, r4, #4194304	; 0x400000
    1c4c:	32811601 	addcc	r1, r1, #1048576	; 0x100000
    1c50:	38bd4030 	popcc	{r4, r5, lr}
    1c54:	312fff1e 	bxcc	lr
    1c58:	e2015102 	and	r5, r1, #-2147483648	; 0x80000000
    1c5c:	e385147f 	orr	r1, r5, #2130706432	; 0x7f000000
    1c60:	e381160f 	orr	r1, r1, #15728640	; 0xf00000
    1c64:	e3a00000 	mov	r0, #0
    1c68:	e8bd4030 	pop	{r4, r5, lr}
    1c6c:	e12fff1e 	bx	lr
    1c70:	e1f0cac4 	mvns	r12, r4, asr #21
    1c74:	11a01003 	movne	r1, r3
    1c78:	11a00002 	movne	r0, r2
    1c7c:	01f0cac5 	mvnseq	r12, r5, asr #21
    1c80:	11a03001 	movne	r3, r1
    1c84:	11a02000 	movne	r2, r0
    1c88:	e1904601 	orrs	r4, r0, r1, lsl #12
    1c8c:	01925603 	orrseq	r5, r2, r3, lsl #12
    1c90:	01310003 	teqeq	r1, r3
    1c94:	13811702 	orrne	r1, r1, #524288	; 0x80000
    1c98:	e8bd4030 	pop	{r4, r5, lr}
    1c9c:	e12fff1e 	bx	lr

00001ca0 <__aeabi_ui2d>:
    1ca0:	e3300000 	teq	r0, #0
    1ca4:	03a01000 	moveq	r1, #0
    1ca8:	012fff1e 	bxeq	lr
    1cac:	e92d4030 	push	{r4, r5, lr}
    1cb0:	e3a04b01 	mov	r4, #1024	; 0x400
    1cb4:	e2844032 	add	r4, r4, #50	; 0x32
    1cb8:	e3a05000 	mov	r5, #0
    1cbc:	e3a01000 	mov	r1, #0
    1cc0:	eaffff86 	b	1ae0 <__adddf3+0x150>

00001cc4 <__aeabi_i2d>:
    1cc4:	e3300000 	teq	r0, #0
    1cc8:	03a01000 	moveq	r1, #0
    1ccc:	012fff1e 	bxeq	lr
    1cd0:	e92d4030 	push	{r4, r5, lr}
    1cd4:	e3a04b01 	mov	r4, #1024	; 0x400
    1cd8:	e2844032 	add	r4, r4, #50	; 0x32
    1cdc:	e2105102 	ands	r5, r0, #-2147483648	; 0x80000000
    1ce0:	42600000 	rsbmi	r0, r0, #0
    1ce4:	e3a01000 	mov	r1, #0
    1ce8:	eaffff7c 	b	1ae0 <__adddf3+0x150>

00001cec <__aeabi_f2d>:
    1cec:	e1b02080 	lsls	r2, r0, #1
    1cf0:	e1a011c2 	asr	r1, r2, #3
    1cf4:	e1a01061 	rrx	r1, r1
    1cf8:	e1a00e02 	lsl	r0, r2, #28
    1cfc:	121234ff 	andsne	r3, r2, #-16777216	; 0xff000000
    1d00:	133304ff 	teqne	r3, #-16777216	; 0xff000000
    1d04:	1221130e 	eorne	r1, r1, #939524096	; 0x38000000
    1d08:	112fff1e 	bxne	lr
    1d0c:	e3320000 	teq	r2, #0
    1d10:	133304ff 	teqne	r3, #-16777216	; 0xff000000
    1d14:	012fff1e 	bxeq	lr
    1d18:	e92d4030 	push	{r4, r5, lr}
    1d1c:	e3a04d0e 	mov	r4, #896	; 0x380
    1d20:	e2015102 	and	r5, r1, #-2147483648	; 0x80000000
    1d24:	e3c11102 	bic	r1, r1, #-2147483648	; 0x80000000
    1d28:	eaffff6c 	b	1ae0 <__adddf3+0x150>

00001d2c <__aeabi_ul2d>:
    1d2c:	e1902001 	orrs	r2, r0, r1
    1d30:	012fff1e 	bxeq	lr
    1d34:	e92d4030 	push	{r4, r5, lr}
    1d38:	e3a05000 	mov	r5, #0
    1d3c:	ea000006 	b	1d5c <__aeabi_l2d+0x1c>

00001d40 <__aeabi_l2d>:
    1d40:	e1902001 	orrs	r2, r0, r1
    1d44:	012fff1e 	bxeq	lr
    1d48:	e92d4030 	push	{r4, r5, lr}
    1d4c:	e2115102 	ands	r5, r1, #-2147483648	; 0x80000000
    1d50:	5a000001 	bpl	1d5c <__aeabi_l2d+0x1c>
    1d54:	e2700000 	rsbs	r0, r0, #0
    1d58:	e2e11000 	rsc	r1, r1, #0
    1d5c:	e3a04b01 	mov	r4, #1024	; 0x400
    1d60:	e2844032 	add	r4, r4, #50	; 0x32
    1d64:	e1b0cb21 	lsrs	r12, r1, #22
    1d68:	0affff44 	beq	1a80 <__adddf3+0xf0>
    1d6c:	e3a02003 	mov	r2, #3
    1d70:	e1b0c1ac 	lsrs	r12, r12, #3
    1d74:	12822003 	addne	r2, r2, #3
    1d78:	e1b0c1ac 	lsrs	r12, r12, #3
    1d7c:	12822003 	addne	r2, r2, #3
    1d80:	e08221ac 	add	r2, r2, r12, lsr #3
    1d84:	e2623020 	rsb	r3, r2, #32
    1d88:	e1a0c310 	lsl	r12, r0, r3
    1d8c:	e1a00230 	lsr	r0, r0, r2
    1d90:	e1800311 	orr	r0, r0, r1, lsl r3
    1d94:	e1a01231 	lsr	r1, r1, r2
    1d98:	e0844002 	add	r4, r4, r2
    1d9c:	eaffff37 	b	1a80 <__adddf3+0xf0>

00001da0 <__aeabi_dmul>:
    1da0:	e92d4070 	push	{r4, r5, r6, lr}
    1da4:	e3a0c0ff 	mov	r12, #255	; 0xff
    1da8:	e38ccc07 	orr	r12, r12, #1792	; 0x700
    1dac:	e01c4a21 	ands	r4, r12, r1, lsr #20
    1db0:	101c5a23 	andsne	r5, r12, r3, lsr #20
    1db4:	1134000c 	teqne	r4, r12
    1db8:	1135000c 	teqne	r5, r12
    1dbc:	0b000075 	bleq	1f98 <__aeabi_dmul+0x1f8>
    1dc0:	e0844005 	add	r4, r4, r5
    1dc4:	e0216003 	eor	r6, r1, r3
    1dc8:	e1c11a8c 	bic	r1, r1, r12, lsl #21
    1dcc:	e1c33a8c 	bic	r3, r3, r12, lsl #21
    1dd0:	e1905601 	orrs	r5, r0, r1, lsl #12
    1dd4:	11925603 	orrsne	r5, r2, r3, lsl #12
    1dd8:	e3811601 	orr	r1, r1, #1048576	; 0x100000
    1ddc:	e3833601 	orr	r3, r3, #1048576	; 0x100000
    1de0:	0a00001d 	beq	1e5c <__aeabi_dmul+0xbc>
    1de4:	e08ec290 	umull	r12, lr, r0, r2
    1de8:	e3a05000 	mov	r5, #0
    1dec:	e0a5e291 	umlal	lr, r5, r1, r2
    1df0:	e2062102 	and	r2, r6, #-2147483648	; 0x80000000
    1df4:	e0a5e390 	umlal	lr, r5, r0, r3
    1df8:	e3a06000 	mov	r6, #0
    1dfc:	e0a65391 	umlal	r5, r6, r1, r3
    1e00:	e33c0000 	teq	r12, #0
    1e04:	138ee001 	orrne	lr, lr, #1
    1e08:	e24440ff 	sub	r4, r4, #255	; 0xff
    1e0c:	e3560c02 	cmp	r6, #512	; 0x200
    1e10:	e2c44c03 	sbc	r4, r4, #768	; 0x300
    1e14:	2a000002 	bcs	1e24 <__aeabi_dmul+0x84>
    1e18:	e1b0e08e 	lsls	lr, lr, #1
    1e1c:	e0b55005 	adcs	r5, r5, r5
    1e20:	e0a66006 	adc	r6, r6, r6
    1e24:	e1821586 	orr	r1, r2, r6, lsl #11
    1e28:	e1811aa5 	orr	r1, r1, r5, lsr #21
    1e2c:	e1a00585 	lsl	r0, r5, #11
    1e30:	e1800aae 	orr	r0, r0, lr, lsr #21
    1e34:	e1a0e58e 	lsl	lr, lr, #11
    1e38:	e254c0fd 	subs	r12, r4, #253	; 0xfd
    1e3c:	835c0c07 	cmphi	r12, #1792	; 0x700
    1e40:	8a000011 	bhi	1e8c <__aeabi_dmul+0xec>
    1e44:	e35e0102 	cmp	lr, #-2147483648	; 0x80000000
    1e48:	01b0e0a0 	lsrseq	lr, r0, #1
    1e4c:	e2b00000 	adcs	r0, r0, #0
    1e50:	e0a11a04 	adc	r1, r1, r4, lsl #20
    1e54:	e8bd4070 	pop	{r4, r5, r6, lr}
    1e58:	e12fff1e 	bx	lr
    1e5c:	e2066102 	and	r6, r6, #-2147483648	; 0x80000000
    1e60:	e1861001 	orr	r1, r6, r1
    1e64:	e1800002 	orr	r0, r0, r2
    1e68:	e0211003 	eor	r1, r1, r3
    1e6c:	e05440ac 	subs	r4, r4, r12, lsr #1
    1e70:	c074500c 	rsbsgt	r5, r4, r12
    1e74:	c1811a04 	orrgt	r1, r1, r4, lsl #20
    1e78:	c8bd4070 	popgt	{r4, r5, r6, lr}
    1e7c:	c12fff1e 	bxgt	lr
    1e80:	e3811601 	orr	r1, r1, #1048576	; 0x100000
    1e84:	e3a0e000 	mov	lr, #0
    1e88:	e2544001 	subs	r4, r4, #1
    1e8c:	ca00005d 	bgt	2008 <__aeabi_dmul+0x268>
    1e90:	e3740036 	cmn	r4, #54	; 0x36
    1e94:	d3a00000 	movle	r0, #0
    1e98:	d2011102 	andle	r1, r1, #-2147483648	; 0x80000000
    1e9c:	d8bd4070 	pople	{r4, r5, r6, lr}
    1ea0:	d12fff1e 	bxle	lr
    1ea4:	e2644000 	rsb	r4, r4, #0
    1ea8:	e2544020 	subs	r4, r4, #32
    1eac:	aa00001a 	bge	1f1c <__aeabi_dmul+0x17c>
    1eb0:	e294400c 	adds	r4, r4, #12
    1eb4:	ca00000c 	bgt	1eec <__aeabi_dmul+0x14c>
    1eb8:	e2844014 	add	r4, r4, #20
    1ebc:	e2645020 	rsb	r5, r4, #32
    1ec0:	e1a03510 	lsl	r3, r0, r5
    1ec4:	e1a00430 	lsr	r0, r0, r4
    1ec8:	e1800511 	orr	r0, r0, r1, lsl r5
    1ecc:	e2012102 	and	r2, r1, #-2147483648	; 0x80000000
    1ed0:	e3c11102 	bic	r1, r1, #-2147483648	; 0x80000000
    1ed4:	e0900fa3 	adds	r0, r0, r3, lsr #31
    1ed8:	e0a21431 	adc	r1, r2, r1, lsr r4
    1edc:	e19ee083 	orrs	lr, lr, r3, lsl #1
    1ee0:	01c00fa3 	biceq	r0, r0, r3, lsr #31
    1ee4:	e8bd4070 	pop	{r4, r5, r6, lr}
    1ee8:	e12fff1e 	bx	lr
    1eec:	e264400c 	rsb	r4, r4, #12
    1ef0:	e2645020 	rsb	r5, r4, #32
    1ef4:	e1a03410 	lsl	r3, r0, r4
    1ef8:	e1a00530 	lsr	r0, r0, r5
    1efc:	e1800411 	orr	r0, r0, r1, lsl r4
    1f00:	e2011102 	and	r1, r1, #-2147483648	; 0x80000000
    1f04:	e0900fa3 	adds	r0, r0, r3, lsr #31
    1f08:	e2a11000 	adc	r1, r1, #0
    1f0c:	e19ee083 	orrs	lr, lr, r3, lsl #1
    1f10:	01c00fa3 	biceq	r0, r0, r3, lsr #31
    1f14:	e8bd4070 	pop	{r4, r5, r6, lr}
    1f18:	e12fff1e 	bx	lr
    1f1c:	e2645020 	rsb	r5, r4, #32
    1f20:	e18ee510 	orr	lr, lr, r0, lsl r5
    1f24:	e1a03430 	lsr	r3, r0, r4
    1f28:	e1833511 	orr	r3, r3, r1, lsl r5
    1f2c:	e1a00431 	lsr	r0, r1, r4
    1f30:	e2011102 	and	r1, r1, #-2147483648	; 0x80000000
    1f34:	e1c00431 	bic	r0, r0, r1, lsr r4
    1f38:	e0800fa3 	add	r0, r0, r3, lsr #31
    1f3c:	e19ee083 	orrs	lr, lr, r3, lsl #1
    1f40:	01c00fa3 	biceq	r0, r0, r3, lsr #31
    1f44:	e8bd4070 	pop	{r4, r5, r6, lr}
    1f48:	e12fff1e 	bx	lr
    1f4c:	e3340000 	teq	r4, #0
    1f50:	1a000008 	bne	1f78 <__aeabi_dmul+0x1d8>
    1f54:	e2016102 	and	r6, r1, #-2147483648	; 0x80000000
    1f58:	e1b00080 	lsls	r0, r0, #1
    1f5c:	e0a11001 	adc	r1, r1, r1
    1f60:	e3110601 	tst	r1, #1048576	; 0x100000
    1f64:	02444001 	subeq	r4, r4, #1
    1f68:	0afffffa 	beq	1f58 <__aeabi_dmul+0x1b8>
    1f6c:	e1811006 	orr	r1, r1, r6
    1f70:	e3350000 	teq	r5, #0
    1f74:	112fff1e 	bxne	lr
    1f78:	e2036102 	and	r6, r3, #-2147483648	; 0x80000000
    1f7c:	e1b02082 	lsls	r2, r2, #1
    1f80:	e0a33003 	adc	r3, r3, r3
    1f84:	e3130601 	tst	r3, #1048576	; 0x100000
    1f88:	02455001 	subeq	r5, r5, #1
    1f8c:	0afffffa 	beq	1f7c <__aeabi_dmul+0x1dc>
    1f90:	e1833006 	orr	r3, r3, r6
    1f94:	e12fff1e 	bx	lr
    1f98:	e134000c 	teq	r4, r12
    1f9c:	e00c5a23 	and	r5, r12, r3, lsr #20
    1fa0:	1135000c 	teqne	r5, r12
    1fa4:	0a000007 	beq	1fc8 <__aeabi_dmul+0x228>
    1fa8:	e1906081 	orrs	r6, r0, r1, lsl #1
    1fac:	11926083 	orrsne	r6, r2, r3, lsl #1
    1fb0:	1affffe5 	bne	1f4c <__aeabi_dmul+0x1ac>
    1fb4:	e0211003 	eor	r1, r1, r3
    1fb8:	e2011102 	and	r1, r1, #-2147483648	; 0x80000000
    1fbc:	e3a00000 	mov	r0, #0
    1fc0:	e8bd4070 	pop	{r4, r5, r6, lr}
    1fc4:	e12fff1e 	bx	lr
    1fc8:	e1906081 	orrs	r6, r0, r1, lsl #1
    1fcc:	01a00002 	moveq	r0, r2
    1fd0:	01a01003 	moveq	r1, r3
    1fd4:	11926083 	orrsne	r6, r2, r3, lsl #1
    1fd8:	0a000010 	beq	2020 <__aeabi_dmul+0x280>
    1fdc:	e134000c 	teq	r4, r12
    1fe0:	1a000001 	bne	1fec <__aeabi_dmul+0x24c>
    1fe4:	e1906601 	orrs	r6, r0, r1, lsl #12
    1fe8:	1a00000c 	bne	2020 <__aeabi_dmul+0x280>
    1fec:	e135000c 	teq	r5, r12
    1ff0:	1a000003 	bne	2004 <__aeabi_dmul+0x264>
    1ff4:	e1926603 	orrs	r6, r2, r3, lsl #12
    1ff8:	11a00002 	movne	r0, r2
    1ffc:	11a01003 	movne	r1, r3
    2000:	1a000006 	bne	2020 <__aeabi_dmul+0x280>
    2004:	e0211003 	eor	r1, r1, r3
    2008:	e2011102 	and	r1, r1, #-2147483648	; 0x80000000
    200c:	e381147f 	orr	r1, r1, #2130706432	; 0x7f000000
    2010:	e381160f 	orr	r1, r1, #15728640	; 0xf00000
    2014:	e3a00000 	mov	r0, #0
    2018:	e8bd4070 	pop	{r4, r5, r6, lr}
    201c:	e12fff1e 	bx	lr
    2020:	e381147f 	orr	r1, r1, #2130706432	; 0x7f000000
    2024:	e381173e 	orr	r1, r1, #16252928	; 0xf80000
    2028:	e8bd4070 	pop	{r4, r5, r6, lr}
    202c:	e12fff1e 	bx	lr

00002030 <__aeabi_ddiv>:
    2030:	e92d4070 	push	{r4, r5, r6, lr}
    2034:	e3a0c0ff 	mov	r12, #255	; 0xff
    2038:	e38ccc07 	orr	r12, r12, #1792	; 0x700
    203c:	e01c4a21 	ands	r4, r12, r1, lsr #20
    2040:	101c5a23 	andsne	r5, r12, r3, lsr #20
    2044:	1134000c 	teqne	r4, r12
    2048:	1135000c 	teqne	r5, r12
    204c:	0b00005e 	bleq	21cc <__aeabi_ddiv+0x19c>
    2050:	e0444005 	sub	r4, r4, r5
    2054:	e021e003 	eor	lr, r1, r3
    2058:	e1925603 	orrs	r5, r2, r3, lsl #12
    205c:	e1a01601 	lsl	r1, r1, #12
    2060:	0a00004c 	beq	2198 <__aeabi_ddiv+0x168>
    2064:	e1a03603 	lsl	r3, r3, #12
    2068:	e3a05201 	mov	r5, #268435456	; 0x10000000
    206c:	e1853223 	orr	r3, r5, r3, lsr #4
    2070:	e1833c22 	orr	r3, r3, r2, lsr #24
    2074:	e1a02402 	lsl	r2, r2, #8
    2078:	e1855221 	orr	r5, r5, r1, lsr #4
    207c:	e1855c20 	orr	r5, r5, r0, lsr #24
    2080:	e1a06400 	lsl	r6, r0, #8
    2084:	e20e1102 	and	r1, lr, #-2147483648	; 0x80000000
    2088:	e1550003 	cmp	r5, r3
    208c:	01560002 	cmpeq	r6, r2
    2090:	e2a440fd 	adc	r4, r4, #253	; 0xfd
    2094:	e2844c03 	add	r4, r4, #768	; 0x300
    2098:	2a000001 	bcs	20a4 <__aeabi_ddiv+0x74>
    209c:	e1b030a3 	lsrs	r3, r3, #1
    20a0:	e1a02062 	rrx	r2, r2
    20a4:	e0566002 	subs	r6, r6, r2
    20a8:	e0c55003 	sbc	r5, r5, r3
    20ac:	e1b030a3 	lsrs	r3, r3, #1
    20b0:	e1a02062 	rrx	r2, r2
    20b4:	e3a00601 	mov	r0, #1048576	; 0x100000
    20b8:	e3a0c702 	mov	r12, #524288	; 0x80000
    20bc:	e056e002 	subs	lr, r6, r2
    20c0:	e0d5e003 	sbcs	lr, r5, r3
    20c4:	20466002 	subcs	r6, r6, r2
    20c8:	21a0500e 	movcs	r5, lr
    20cc:	2180000c 	orrcs	r0, r0, r12
    20d0:	e1b030a3 	lsrs	r3, r3, #1
    20d4:	e1a02062 	rrx	r2, r2
    20d8:	e056e002 	subs	lr, r6, r2
    20dc:	e0d5e003 	sbcs	lr, r5, r3
    20e0:	20466002 	subcs	r6, r6, r2
    20e4:	21a0500e 	movcs	r5, lr
    20e8:	218000ac 	orrcs	r0, r0, r12, lsr #1
    20ec:	e1b030a3 	lsrs	r3, r3, #1
    20f0:	e1a02062 	rrx	r2, r2
    20f4:	e056e002 	subs	lr, r6, r2
    20f8:	e0d5e003 	sbcs	lr, r5, r3
    20fc:	20466002 	subcs	r6, r6, r2
    2100:	21a0500e 	movcs	r5, lr
    2104:	2180012c 	orrcs	r0, r0, r12, lsr #2
    2108:	e1b030a3 	lsrs	r3, r3, #1
    210c:	e1a02062 	rrx	r2, r2
    2110:	e056e002 	subs	lr, r6, r2
    2114:	e0d5e003 	sbcs	lr, r5, r3
    2118:	20466002 	subcs	r6, r6, r2
    211c:	21a0500e 	movcs	r5, lr
    2120:	218001ac 	orrcs	r0, r0, r12, lsr #3
    2124:	e195e006 	orrs	lr, r5, r6
    2128:	0a00000d 	beq	2164 <__aeabi_ddiv+0x134>
    212c:	e1a05205 	lsl	r5, r5, #4
    2130:	e1855e26 	orr	r5, r5, r6, lsr #28
    2134:	e1a06206 	lsl	r6, r6, #4
    2138:	e1a03183 	lsl	r3, r3, #3
    213c:	e1833ea2 	orr	r3, r3, r2, lsr #29
    2140:	e1a02182 	lsl	r2, r2, #3
    2144:	e1b0c22c 	lsrs	r12, r12, #4
    2148:	1affffdb 	bne	20bc <__aeabi_ddiv+0x8c>
    214c:	e3110601 	tst	r1, #1048576	; 0x100000
    2150:	1a000006 	bne	2170 <__aeabi_ddiv+0x140>
    2154:	e1811000 	orr	r1, r1, r0
    2158:	e3a00000 	mov	r0, #0
    215c:	e3a0c102 	mov	r12, #-2147483648	; 0x80000000
    2160:	eaffffd5 	b	20bc <__aeabi_ddiv+0x8c>
    2164:	e3110601 	tst	r1, #1048576	; 0x100000
    2168:	01811000 	orreq	r1, r1, r0
    216c:	03a00000 	moveq	r0, #0
    2170:	e254c0fd 	subs	r12, r4, #253	; 0xfd
    2174:	835c0c07 	cmphi	r12, #1792	; 0x700
    2178:	8affff43 	bhi	1e8c <__aeabi_dmul+0xec>
    217c:	e055c003 	subs	r12, r5, r3
    2180:	0056c002 	subseq	r12, r6, r2
    2184:	01b0c0a0 	lsrseq	r12, r0, #1
    2188:	e2b00000 	adcs	r0, r0, #0
    218c:	e0a11a04 	adc	r1, r1, r4, lsl #20
    2190:	e8bd4070 	pop	{r4, r5, r6, lr}
    2194:	e12fff1e 	bx	lr
    2198:	e20ee102 	and	lr, lr, #-2147483648	; 0x80000000
    219c:	e18e1621 	orr	r1, lr, r1, lsr #12
    21a0:	e09440ac 	adds	r4, r4, r12, lsr #1
    21a4:	c074500c 	rsbsgt	r5, r4, r12
    21a8:	c1811a04 	orrgt	r1, r1, r4, lsl #20
    21ac:	c8bd4070 	popgt	{r4, r5, r6, lr}
    21b0:	c12fff1e 	bxgt	lr
    21b4:	e3811601 	orr	r1, r1, #1048576	; 0x100000
    21b8:	e3a0e000 	mov	lr, #0
    21bc:	e2544001 	subs	r4, r4, #1
    21c0:	eaffff31 	b	1e8c <__aeabi_dmul+0xec>
    21c4:	e185e006 	orr	lr, r5, r6
    21c8:	eaffff2f 	b	1e8c <__aeabi_dmul+0xec>
    21cc:	e00c5a23 	and	r5, r12, r3, lsr #20
    21d0:	e134000c 	teq	r4, r12
    21d4:	0135000c 	teqeq	r5, r12
    21d8:	0affff90 	beq	2020 <__aeabi_dmul+0x280>
    21dc:	e134000c 	teq	r4, r12
    21e0:	1a000006 	bne	2200 <__aeabi_ddiv+0x1d0>
    21e4:	e1904601 	orrs	r4, r0, r1, lsl #12
    21e8:	1affff8c 	bne	2020 <__aeabi_dmul+0x280>
    21ec:	e135000c 	teq	r5, r12
    21f0:	1affff83 	bne	2004 <__aeabi_dmul+0x264>
    21f4:	e1a00002 	mov	r0, r2
    21f8:	e1a01003 	mov	r1, r3
    21fc:	eaffff87 	b	2020 <__aeabi_dmul+0x280>
    2200:	e135000c 	teq	r5, r12
    2204:	1a000004 	bne	221c <__aeabi_ddiv+0x1ec>
    2208:	e1925603 	orrs	r5, r2, r3, lsl #12
    220c:	0affff68 	beq	1fb4 <__aeabi_dmul+0x214>
    2210:	e1a00002 	mov	r0, r2
    2214:	e1a01003 	mov	r1, r3
    2218:	eaffff80 	b	2020 <__aeabi_dmul+0x280>
    221c:	e1906081 	orrs	r6, r0, r1, lsl #1
    2220:	11926083 	orrsne	r6, r2, r3, lsl #1
    2224:	1affff48 	bne	1f4c <__aeabi_dmul+0x1ac>
    2228:	e1904081 	orrs	r4, r0, r1, lsl #1
    222c:	1affff74 	bne	2004 <__aeabi_dmul+0x264>
    2230:	e1925083 	orrs	r5, r2, r3, lsl #1
    2234:	1affff5e 	bne	1fb4 <__aeabi_dmul+0x214>
    2238:	eaffff78 	b	2020 <__aeabi_dmul+0x280>

0000223c <__gedf2>:
    223c:	e3e0c000 	mvn	r12, #0
    2240:	ea000002 	b	2250 <__cmpdf2+0x4>

00002244 <__ledf2>:
    2244:	e3a0c001 	mov	r12, #1
    2248:	ea000000 	b	2250 <__cmpdf2+0x4>

0000224c <__cmpdf2>:
    224c:	e3a0c001 	mov	r12, #1
    2250:	e52dc004 	push	{r12}		; (str r12, [sp, #-4]!)
    2254:	e1a0c081 	lsl	r12, r1, #1
    2258:	e1f0cacc 	mvns	r12, r12, asr #21
    225c:	e1a0c083 	lsl	r12, r3, #1
    2260:	11f0cacc 	mvnsne	r12, r12, asr #21
    2264:	0a00000e 	beq	22a4 <__cmpdf2+0x58>
    2268:	e28dd004 	add	sp, sp, #4
    226c:	e190c081 	orrs	r12, r0, r1, lsl #1
    2270:	0192c083 	orrseq	r12, r2, r3, lsl #1
    2274:	11310003 	teqne	r1, r3
    2278:	01300002 	teqeq	r0, r2
    227c:	03a00000 	moveq	r0, #0
    2280:	012fff1e 	bxeq	lr
    2284:	e3700000 	cmn	r0, #0
    2288:	e1310003 	teq	r1, r3
    228c:	51510003 	cmppl	r1, r3
    2290:	01500002 	cmpeq	r0, r2
    2294:	21a00fc3 	asrcs	r0, r3, #31
    2298:	31e00fc3 	mvncc	r0, r3, asr #31
    229c:	e3800001 	orr	r0, r0, #1
    22a0:	e12fff1e 	bx	lr
    22a4:	e1a0c081 	lsl	r12, r1, #1
    22a8:	e1f0cacc 	mvns	r12, r12, asr #21
    22ac:	1a000001 	bne	22b8 <__cmpdf2+0x6c>
    22b0:	e190c601 	orrs	r12, r0, r1, lsl #12
    22b4:	1a000004 	bne	22cc <__cmpdf2+0x80>
    22b8:	e1a0c083 	lsl	r12, r3, #1
    22bc:	e1f0cacc 	mvns	r12, r12, asr #21
    22c0:	1affffe8 	bne	2268 <__cmpdf2+0x1c>
    22c4:	e192c603 	orrs	r12, r2, r3, lsl #12
    22c8:	0affffe6 	beq	2268 <__cmpdf2+0x1c>
    22cc:	e49d0004 	pop	{r0}		; (ldr r0, [sp], #4)
    22d0:	e12fff1e 	bx	lr

000022d4 <__aeabi_cdrcmple>:
    22d4:	e1a0c000 	mov	r12, r0
    22d8:	e1a00002 	mov	r0, r2
    22dc:	e1a0200c 	mov	r2, r12
    22e0:	e1a0c001 	mov	r12, r1
    22e4:	e1a01003 	mov	r1, r3
    22e8:	e1a0300c 	mov	r3, r12
    22ec:	eaffffff 	b	22f0 <__aeabi_cdcmpeq>

000022f0 <__aeabi_cdcmpeq>:
    22f0:	e92d4001 	push	{r0, lr}
    22f4:	ebffffd4 	bl	224c <__cmpdf2>
    22f8:	e3500000 	cmp	r0, #0
    22fc:	43700000 	cmnmi	r0, #0
    2300:	e8bd4001 	pop	{r0, lr}
    2304:	e12fff1e 	bx	lr

00002308 <__aeabi_dcmpeq>:
    2308:	e52de008 	str	lr, [sp, #-8]!
    230c:	ebfffff7 	bl	22f0 <__aeabi_cdcmpeq>
    2310:	03a00001 	moveq	r0, #1
    2314:	13a00000 	movne	r0, #0
    2318:	e49de008 	ldr	lr, [sp], #8
    231c:	e12fff1e 	bx	lr

00002320 <__aeabi_dcmplt>:
    2320:	e52de008 	str	lr, [sp, #-8]!
    2324:	ebfffff1 	bl	22f0 <__aeabi_cdcmpeq>
    2328:	33a00001 	movcc	r0, #1
    232c:	23a00000 	movcs	r0, #0
    2330:	e49de008 	ldr	lr, [sp], #8
    2334:	e12fff1e 	bx	lr

00002338 <__aeabi_dcmple>:
    2338:	e52de008 	str	lr, [sp, #-8]!
    233c:	ebffffeb 	bl	22f0 <__aeabi_cdcmpeq>
    2340:	93a00001 	movls	r0, #1
    2344:	83a00000 	movhi	r0, #0
    2348:	e49de008 	ldr	lr, [sp], #8
    234c:	e12fff1e 	bx	lr

00002350 <__aeabi_dcmpge>:
    2350:	e52de008 	str	lr, [sp, #-8]!
    2354:	ebffffde 	bl	22d4 <__aeabi_cdrcmple>
    2358:	93a00001 	movls	r0, #1
    235c:	83a00000 	movhi	r0, #0
    2360:	e49de008 	ldr	lr, [sp], #8
    2364:	e12fff1e 	bx	lr

00002368 <__aeabi_dcmpgt>:
    2368:	e52de008 	str	lr, [sp, #-8]!
    236c:	ebffffd8 	bl	22d4 <__aeabi_cdrcmple>
    2370:	33a00001 	movcc	r0, #1
    2374:	23a00000 	movcs	r0, #0
    2378:	e49de008 	ldr	lr, [sp], #8
    237c:	e12fff1e 	bx	lr

00002380 <__aeabi_d2iz>:
    2380:	e1a02081 	lsl	r2, r1, #1
    2384:	e2922602 	adds	r2, r2, #2097152	; 0x200000
    2388:	2a00000c 	bcs	23c0 <__aeabi_d2iz+0x40>
    238c:	5a000009 	bpl	23b8 <__aeabi_d2iz+0x38>
    2390:	e3e03e3e 	mvn	r3, #992	; 0x3e0
    2394:	e0532ac2 	subs	r2, r3, r2, asr #21
    2398:	9a00000a 	bls	23c8 <__aeabi_d2iz+0x48>
    239c:	e1a03581 	lsl	r3, r1, #11
    23a0:	e3833102 	orr	r3, r3, #-2147483648	; 0x80000000
    23a4:	e1833aa0 	orr	r3, r3, r0, lsr #21
    23a8:	e3110102 	tst	r1, #-2147483648	; 0x80000000
    23ac:	e1a00233 	lsr	r0, r3, r2
    23b0:	12600000 	rsbne	r0, r0, #0
    23b4:	e12fff1e 	bx	lr
    23b8:	e3a00000 	mov	r0, #0
    23bc:	e12fff1e 	bx	lr
    23c0:	e1900601 	orrs	r0, r0, r1, lsl #12
    23c4:	1a000002 	bne	23d4 <__aeabi_d2iz+0x54>
    23c8:	e2110102 	ands	r0, r1, #-2147483648	; 0x80000000
    23cc:	03e00102 	mvneq	r0, #-2147483648	; 0x80000000
    23d0:	e12fff1e 	bx	lr
    23d4:	e3a00000 	mov	r0, #0
    23d8:	e12fff1e 	bx	lr

000023dc <__aeabi_frsub>:
    23dc:	e2200102 	eor	r0, r0, #-2147483648	; 0x80000000
    23e0:	ea000000 	b	23e8 <__addsf3>

000023e4 <__aeabi_fsub>:
    23e4:	e2211102 	eor	r1, r1, #-2147483648	; 0x80000000

000023e8 <__addsf3>:
    23e8:	e1b02080 	lsls	r2, r0, #1
    23ec:	11b03081 	lslsne	r3, r1, #1
    23f0:	11320003 	teqne	r2, r3
    23f4:	11f0cc42 	mvnsne	r12, r2, asr #24
    23f8:	11f0cc43 	mvnsne	r12, r3, asr #24
    23fc:	0a000047 	beq	2520 <__addsf3+0x138>
    2400:	e1a02c22 	lsr	r2, r2, #24
    2404:	e0723c23 	rsbs	r3, r2, r3, lsr #24
    2408:	c0822003 	addgt	r2, r2, r3
    240c:	c0201001 	eorgt	r1, r0, r1
    2410:	c0210000 	eorgt	r0, r1, r0
    2414:	c0201001 	eorgt	r1, r0, r1
    2418:	b2633000 	rsblt	r3, r3, #0
    241c:	e3530019 	cmp	r3, #25
    2420:	812fff1e 	bxhi	lr
    2424:	e3100102 	tst	r0, #-2147483648	; 0x80000000
    2428:	e3800502 	orr	r0, r0, #8388608	; 0x800000
    242c:	e3c004ff 	bic	r0, r0, #-16777216	; 0xff000000
    2430:	12600000 	rsbne	r0, r0, #0
    2434:	e3110102 	tst	r1, #-2147483648	; 0x80000000
    2438:	e3811502 	orr	r1, r1, #8388608	; 0x800000
    243c:	e3c114ff 	bic	r1, r1, #-16777216	; 0xff000000
    2440:	12611000 	rsbne	r1, r1, #0
    2444:	e1320003 	teq	r2, r3
    2448:	0a00002e 	beq	2508 <__addsf3+0x120>
    244c:	e2422001 	sub	r2, r2, #1
    2450:	e0900351 	adds	r0, r0, r1, asr r3
    2454:	e2633020 	rsb	r3, r3, #32
    2458:	e1a01311 	lsl	r1, r1, r3
    245c:	e2003102 	and	r3, r0, #-2147483648	; 0x80000000
    2460:	5a000001 	bpl	246c <__addsf3+0x84>
    2464:	e2711000 	rsbs	r1, r1, #0
    2468:	e2e00000 	rsc	r0, r0, #0
    246c:	e3500502 	cmp	r0, #8388608	; 0x800000
    2470:	3a00000b 	bcc	24a4 <__addsf3+0xbc>
    2474:	e3500401 	cmp	r0, #16777216	; 0x1000000
    2478:	3a000004 	bcc	2490 <__addsf3+0xa8>
    247c:	e1b000a0 	lsrs	r0, r0, #1
    2480:	e1a01061 	rrx	r1, r1
    2484:	e2822001 	add	r2, r2, #1
    2488:	e35200fe 	cmp	r2, #254	; 0xfe
    248c:	2a000038 	bcs	2574 <__addsf3+0x18c>
    2490:	e3510102 	cmp	r1, #-2147483648	; 0x80000000
    2494:	e0a00b82 	adc	r0, r0, r2, lsl #23
    2498:	03c00001 	biceq	r0, r0, #1
    249c:	e1800003 	orr	r0, r0, r3
    24a0:	e12fff1e 	bx	lr
    24a4:	e1b01081 	lsls	r1, r1, #1
    24a8:	e0a00000 	adc	r0, r0, r0
    24ac:	e3100502 	tst	r0, #8388608	; 0x800000
    24b0:	e2422001 	sub	r2, r2, #1
    24b4:	1afffff5 	bne	2490 <__addsf3+0xa8>
    24b8:	e1b0c620 	lsrs	r12, r0, #12
    24bc:	01a00600 	lsleq	r0, r0, #12
    24c0:	0242200c 	subeq	r2, r2, #12
    24c4:	e31008ff 	tst	r0, #16711680	; 0xff0000
    24c8:	01a00400 	lsleq	r0, r0, #8
    24cc:	02422008 	subeq	r2, r2, #8
    24d0:	e310060f 	tst	r0, #15728640	; 0xf00000
    24d4:	01a00200 	lsleq	r0, r0, #4
    24d8:	02422004 	subeq	r2, r2, #4
    24dc:	e3100503 	tst	r0, #12582912	; 0xc00000
    24e0:	01a00100 	lsleq	r0, r0, #2
    24e4:	02422002 	subeq	r2, r2, #2
    24e8:	e3500502 	cmp	r0, #8388608	; 0x800000
    24ec:	31a00080 	lslcc	r0, r0, #1
    24f0:	e2d22000 	sbcs	r2, r2, #0
    24f4:	a0800b82 	addge	r0, r0, r2, lsl #23
    24f8:	b2622000 	rsblt	r2, r2, #0
    24fc:	a1800003 	orrge	r0, r0, r3
    2500:	b1830230 	orrlt	r0, r3, r0, lsr r2
    2504:	e12fff1e 	bx	lr
    2508:	e3320000 	teq	r2, #0
    250c:	e2211502 	eor	r1, r1, #8388608	; 0x800000
    2510:	02200502 	eoreq	r0, r0, #8388608	; 0x800000
    2514:	02822001 	addeq	r2, r2, #1
    2518:	12433001 	subne	r3, r3, #1
    251c:	eaffffca 	b	244c <__addsf3+0x64>
    2520:	e1a03081 	lsl	r3, r1, #1
    2524:	e1f0cc42 	mvns	r12, r2, asr #24
    2528:	11f0cc43 	mvnsne	r12, r3, asr #24
    252c:	0a000013 	beq	2580 <__addsf3+0x198>
    2530:	e1320003 	teq	r2, r3
    2534:	0a000002 	beq	2544 <__addsf3+0x15c>
    2538:	e3320000 	teq	r2, #0
    253c:	01a00001 	moveq	r0, r1
    2540:	e12fff1e 	bx	lr
    2544:	e1300001 	teq	r0, r1
    2548:	13a00000 	movne	r0, #0
    254c:	112fff1e 	bxne	lr
    2550:	e31204ff 	tst	r2, #-16777216	; 0xff000000
    2554:	1a000002 	bne	2564 <__addsf3+0x17c>
    2558:	e1b00080 	lsls	r0, r0, #1
    255c:	23800102 	orrcs	r0, r0, #-2147483648	; 0x80000000
    2560:	e12fff1e 	bx	lr
    2564:	e2922402 	adds	r2, r2, #33554432	; 0x2000000
    2568:	32800502 	addcc	r0, r0, #8388608	; 0x800000
    256c:	312fff1e 	bxcc	lr
    2570:	e2003102 	and	r3, r0, #-2147483648	; 0x80000000
    2574:	e383047f 	orr	r0, r3, #2130706432	; 0x7f000000
    2578:	e3800502 	orr	r0, r0, #8388608	; 0x800000
    257c:	e12fff1e 	bx	lr
    2580:	e1f02c42 	mvns	r2, r2, asr #24
    2584:	11a00001 	movne	r0, r1
    2588:	01f03c43 	mvnseq	r3, r3, asr #24
    258c:	11a01000 	movne	r1, r0
    2590:	e1b02480 	lsls	r2, r0, #9
    2594:	01b03481 	lslseq	r3, r1, #9
    2598:	01300001 	teqeq	r0, r1
    259c:	13800501 	orrne	r0, r0, #4194304	; 0x400000
    25a0:	e12fff1e 	bx	lr

000025a4 <__aeabi_ui2f>:
    25a4:	e3a03000 	mov	r3, #0
    25a8:	ea000001 	b	25b4 <__aeabi_i2f+0x8>

000025ac <__aeabi_i2f>:
    25ac:	e2103102 	ands	r3, r0, #-2147483648	; 0x80000000
    25b0:	42600000 	rsbmi	r0, r0, #0
    25b4:	e1b0c000 	movs	r12, r0
    25b8:	012fff1e 	bxeq	lr
    25bc:	e383344b 	orr	r3, r3, #1258291200	; 0x4b000000
    25c0:	e1a01000 	mov	r1, r0
    25c4:	e3a00000 	mov	r0, #0
    25c8:	ea00000f 	b	260c <__aeabi_l2f+0x30>

000025cc <__aeabi_ul2f>:
    25cc:	e1902001 	orrs	r2, r0, r1
    25d0:	012fff1e 	bxeq	lr
    25d4:	e3a03000 	mov	r3, #0
    25d8:	ea000005 	b	25f4 <__aeabi_l2f+0x18>

000025dc <__aeabi_l2f>:
    25dc:	e1902001 	orrs	r2, r0, r1
    25e0:	012fff1e 	bxeq	lr
    25e4:	e2113102 	ands	r3, r1, #-2147483648	; 0x80000000
    25e8:	5a000001 	bpl	25f4 <__aeabi_l2f+0x18>
    25ec:	e2700000 	rsbs	r0, r0, #0
    25f0:	e2e11000 	rsc	r1, r1, #0
    25f4:	e1b0c001 	movs	r12, r1
    25f8:	01a0c000 	moveq	r12, r0
    25fc:	01a01000 	moveq	r1, r0
    2600:	03a00000 	moveq	r0, #0
    2604:	e383345b 	orr	r3, r3, #1526726656	; 0x5b000000
    2608:	02433201 	subeq	r3, r3, #268435456	; 0x10000000
    260c:	e2433502 	sub	r3, r3, #8388608	; 0x800000
    2610:	e3a02017 	mov	r2, #23
    2614:	e35c0801 	cmp	r12, #65536	; 0x10000
    2618:	21a0c82c 	lsrcs	r12, r12, #16
    261c:	22422010 	subcs	r2, r2, #16
    2620:	e35c0c01 	cmp	r12, #256	; 0x100
    2624:	21a0c42c 	lsrcs	r12, r12, #8
    2628:	22422008 	subcs	r2, r2, #8
    262c:	e35c0010 	cmp	r12, #16
    2630:	21a0c22c 	lsrcs	r12, r12, #4
    2634:	22422004 	subcs	r2, r2, #4
    2638:	e35c0004 	cmp	r12, #4
    263c:	22422002 	subcs	r2, r2, #2
    2640:	304220ac 	subcc	r2, r2, r12, lsr #1
    2644:	e05221ac 	subs	r2, r2, r12, lsr #3
    2648:	e0433b82 	sub	r3, r3, r2, lsl #23
    264c:	ba000006 	blt	266c <__aeabi_l2f+0x90>
    2650:	e0833211 	add	r3, r3, r1, lsl r2
    2654:	e1a0c210 	lsl	r12, r0, r2
    2658:	e2622020 	rsb	r2, r2, #32
    265c:	e35c0102 	cmp	r12, #-2147483648	; 0x80000000
    2660:	e0a30230 	adc	r0, r3, r0, lsr r2
    2664:	03c00001 	biceq	r0, r0, #1
    2668:	e12fff1e 	bx	lr
    266c:	e2822020 	add	r2, r2, #32
    2670:	e1a0c211 	lsl	r12, r1, r2
    2674:	e2622020 	rsb	r2, r2, #32
    2678:	e190008c 	orrs	r0, r0, r12, lsl #1
    267c:	e0a30231 	adc	r0, r3, r1, lsr r2
    2680:	01c00fac 	biceq	r0, r0, r12, lsr #31
    2684:	e12fff1e 	bx	lr

00002688 <__aeabi_fmul>:
    2688:	e3a0c0ff 	mov	r12, #255	; 0xff
    268c:	e01c2ba0 	ands	r2, r12, r0, lsr #23
    2690:	101c3ba1 	andsne	r3, r12, r1, lsr #23
    2694:	1132000c 	teqne	r2, r12
    2698:	1133000c 	teqne	r3, r12
    269c:	0a00003e 	beq	279c <__aeabi_fmul+0x114>
    26a0:	e0822003 	add	r2, r2, r3
    26a4:	e020c001 	eor	r12, r0, r1
    26a8:	e1b00480 	lsls	r0, r0, #9
    26ac:	11b01481 	lslsne	r1, r1, #9
    26b0:	0a000010 	beq	26f8 <__aeabi_fmul+0x70>
    26b4:	e3a03302 	mov	r3, #134217728	; 0x8000000
    26b8:	e18302a0 	orr	r0, r3, r0, lsr #5
    26bc:	e18312a1 	orr	r1, r3, r1, lsr #5
    26c0:	e0813190 	umull	r3, r1, r0, r1
    26c4:	e20c0102 	and	r0, r12, #-2147483648	; 0x80000000
    26c8:	e3510502 	cmp	r1, #8388608	; 0x800000
    26cc:	31a01081 	lslcc	r1, r1, #1
    26d0:	31811fa3 	orrcc	r1, r1, r3, lsr #31
    26d4:	31a03083 	lslcc	r3, r3, #1
    26d8:	e1800001 	orr	r0, r0, r1
    26dc:	e2c2207f 	sbc	r2, r2, #127	; 0x7f
    26e0:	e35200fd 	cmp	r2, #253	; 0xfd
    26e4:	8a00000f 	bhi	2728 <__aeabi_fmul+0xa0>
    26e8:	e3530102 	cmp	r3, #-2147483648	; 0x80000000
    26ec:	e0a00b82 	adc	r0, r0, r2, lsl #23
    26f0:	03c00001 	biceq	r0, r0, #1
    26f4:	e12fff1e 	bx	lr
    26f8:	e3300000 	teq	r0, #0
    26fc:	e20cc102 	and	r12, r12, #-2147483648	; 0x80000000
    2700:	01a01481 	lsleq	r1, r1, #9
    2704:	e18c04a0 	orr	r0, r12, r0, lsr #9
    2708:	e18004a1 	orr	r0, r0, r1, lsr #9
    270c:	e252207f 	subs	r2, r2, #127	; 0x7f
    2710:	c27230ff 	rsbsgt	r3, r2, #255	; 0xff
    2714:	c1800b82 	orrgt	r0, r0, r2, lsl #23
    2718:	c12fff1e 	bxgt	lr
    271c:	e3800502 	orr	r0, r0, #8388608	; 0x800000
    2720:	e3a03000 	mov	r3, #0
    2724:	e2522001 	subs	r2, r2, #1
    2728:	ca000035 	bgt	2804 <__aeabi_fmul+0x17c>
    272c:	e3720019 	cmn	r2, #25
    2730:	d2000102 	andle	r0, r0, #-2147483648	; 0x80000000
    2734:	d12fff1e 	bxle	lr
    2738:	e2622000 	rsb	r2, r2, #0
    273c:	e1b01080 	lsls	r1, r0, #1
    2740:	e1a01231 	lsr	r1, r1, r2
    2744:	e2622020 	rsb	r2, r2, #32
    2748:	e1a0c210 	lsl	r12, r0, r2
    274c:	e1b00061 	rrxs	r0, r1
    2750:	e2a00000 	adc	r0, r0, #0
    2754:	e193308c 	orrs	r3, r3, r12, lsl #1
    2758:	01c00fac 	biceq	r0, r0, r12, lsr #31
    275c:	e12fff1e 	bx	lr
    2760:	e3320000 	teq	r2, #0
    2764:	e200c102 	and	r12, r0, #-2147483648	; 0x80000000
    2768:	01a00080 	lsleq	r0, r0, #1
    276c:	03100502 	tsteq	r0, #8388608	; 0x800000
    2770:	02422001 	subeq	r2, r2, #1
    2774:	0afffffb 	beq	2768 <__aeabi_fmul+0xe0>
    2778:	e180000c 	orr	r0, r0, r12
    277c:	e3330000 	teq	r3, #0
    2780:	e201c102 	and	r12, r1, #-2147483648	; 0x80000000
    2784:	01a01081 	lsleq	r1, r1, #1
    2788:	03110502 	tsteq	r1, #8388608	; 0x800000
    278c:	02433001 	subeq	r3, r3, #1
    2790:	0afffffb 	beq	2784 <__aeabi_fmul+0xfc>
    2794:	e181100c 	orr	r1, r1, r12
    2798:	eaffffc0 	b	26a0 <__aeabi_fmul+0x18>
    279c:	e00c3ba1 	and	r3, r12, r1, lsr #23
    27a0:	e132000c 	teq	r2, r12
    27a4:	1133000c 	teqne	r3, r12
    27a8:	0a000005 	beq	27c4 <__aeabi_fmul+0x13c>
    27ac:	e3d0c102 	bics	r12, r0, #-2147483648	; 0x80000000
    27b0:	13d1c102 	bicsne	r12, r1, #-2147483648	; 0x80000000
    27b4:	1affffe9 	bne	2760 <__aeabi_fmul+0xd8>
    27b8:	e0200001 	eor	r0, r0, r1
    27bc:	e2000102 	and	r0, r0, #-2147483648	; 0x80000000
    27c0:	e12fff1e 	bx	lr
    27c4:	e3300000 	teq	r0, #0
    27c8:	13300102 	teqne	r0, #-2147483648	; 0x80000000
    27cc:	01a00001 	moveq	r0, r1
    27d0:	13310000 	teqne	r1, #0
    27d4:	13310102 	teqne	r1, #-2147483648	; 0x80000000
    27d8:	0a00000d 	beq	2814 <__aeabi_fmul+0x18c>
    27dc:	e132000c 	teq	r2, r12
    27e0:	1a000001 	bne	27ec <__aeabi_fmul+0x164>
    27e4:	e1b02480 	lsls	r2, r0, #9
    27e8:	1a000009 	bne	2814 <__aeabi_fmul+0x18c>
    27ec:	e133000c 	teq	r3, r12
    27f0:	1a000002 	bne	2800 <__aeabi_fmul+0x178>
    27f4:	e1b03481 	lsls	r3, r1, #9
    27f8:	11a00001 	movne	r0, r1
    27fc:	1a000004 	bne	2814 <__aeabi_fmul+0x18c>
    2800:	e0200001 	eor	r0, r0, r1
    2804:	e2000102 	and	r0, r0, #-2147483648	; 0x80000000
    2808:	e380047f 	orr	r0, r0, #2130706432	; 0x7f000000
    280c:	e3800502 	orr	r0, r0, #8388608	; 0x800000
    2810:	e12fff1e 	bx	lr
    2814:	e380047f 	orr	r0, r0, #2130706432	; 0x7f000000
    2818:	e3800503 	orr	r0, r0, #12582912	; 0xc00000
    281c:	e12fff1e 	bx	lr

00002820 <__aeabi_fdiv>:
    2820:	e3a0c0ff 	mov	r12, #255	; 0xff
    2824:	e01c2ba0 	ands	r2, r12, r0, lsr #23
    2828:	101c3ba1 	andsne	r3, r12, r1, lsr #23
    282c:	1132000c 	teqne	r2, r12
    2830:	1133000c 	teqne	r3, r12
    2834:	0a00003a 	beq	2924 <__aeabi_fdiv+0x104>
    2838:	e0422003 	sub	r2, r2, r3
    283c:	e020c001 	eor	r12, r0, r1
    2840:	e1b01481 	lsls	r1, r1, #9
    2844:	e1a00480 	lsl	r0, r0, #9
    2848:	0a00001c 	beq	28c0 <__aeabi_fdiv+0xa0>
    284c:	e3a03201 	mov	r3, #268435456	; 0x10000000
    2850:	e1831221 	orr	r1, r3, r1, lsr #4
    2854:	e1833220 	orr	r3, r3, r0, lsr #4
    2858:	e20c0102 	and	r0, r12, #-2147483648	; 0x80000000
    285c:	e1530001 	cmp	r3, r1
    2860:	31a03083 	lslcc	r3, r3, #1
    2864:	e2a2207d 	adc	r2, r2, #125	; 0x7d
    2868:	e3a0c502 	mov	r12, #8388608	; 0x800000
    286c:	e1530001 	cmp	r3, r1
    2870:	20433001 	subcs	r3, r3, r1
    2874:	2180000c 	orrcs	r0, r0, r12
    2878:	e15300a1 	cmp	r3, r1, lsr #1
    287c:	204330a1 	subcs	r3, r3, r1, lsr #1
    2880:	218000ac 	orrcs	r0, r0, r12, lsr #1
    2884:	e1530121 	cmp	r3, r1, lsr #2
    2888:	20433121 	subcs	r3, r3, r1, lsr #2
    288c:	2180012c 	orrcs	r0, r0, r12, lsr #2
    2890:	e15301a1 	cmp	r3, r1, lsr #3
    2894:	204331a1 	subcs	r3, r3, r1, lsr #3
    2898:	218001ac 	orrcs	r0, r0, r12, lsr #3
    289c:	e1b03203 	lsls	r3, r3, #4
    28a0:	11b0c22c 	lsrsne	r12, r12, #4
    28a4:	1afffff0 	bne	286c <__aeabi_fdiv+0x4c>
    28a8:	e35200fd 	cmp	r2, #253	; 0xfd
    28ac:	8affff9d 	bhi	2728 <__aeabi_fmul+0xa0>
    28b0:	e1530001 	cmp	r3, r1
    28b4:	e0a00b82 	adc	r0, r0, r2, lsl #23
    28b8:	03c00001 	biceq	r0, r0, #1
    28bc:	e12fff1e 	bx	lr
    28c0:	e20cc102 	and	r12, r12, #-2147483648	; 0x80000000
    28c4:	e18c04a0 	orr	r0, r12, r0, lsr #9
    28c8:	e292207f 	adds	r2, r2, #127	; 0x7f
    28cc:	c27230ff 	rsbsgt	r3, r2, #255	; 0xff
    28d0:	c1800b82 	orrgt	r0, r0, r2, lsl #23
    28d4:	c12fff1e 	bxgt	lr
    28d8:	e3800502 	orr	r0, r0, #8388608	; 0x800000
    28dc:	e3a03000 	mov	r3, #0
    28e0:	e2522001 	subs	r2, r2, #1
    28e4:	eaffff8f 	b	2728 <__aeabi_fmul+0xa0>
    28e8:	e3320000 	teq	r2, #0
    28ec:	e200c102 	and	r12, r0, #-2147483648	; 0x80000000
    28f0:	01a00080 	lsleq	r0, r0, #1
    28f4:	03100502 	tsteq	r0, #8388608	; 0x800000
    28f8:	02422001 	subeq	r2, r2, #1
    28fc:	0afffffb 	beq	28f0 <__aeabi_fdiv+0xd0>
    2900:	e180000c 	orr	r0, r0, r12
    2904:	e3330000 	teq	r3, #0
    2908:	e201c102 	and	r12, r1, #-2147483648	; 0x80000000
    290c:	01a01081 	lsleq	r1, r1, #1
    2910:	03110502 	tsteq	r1, #8388608	; 0x800000
    2914:	02433001 	subeq	r3, r3, #1
    2918:	0afffffb 	beq	290c <__aeabi_fdiv+0xec>
    291c:	e181100c 	orr	r1, r1, r12
    2920:	eaffffc4 	b	2838 <__aeabi_fdiv+0x18>
    2924:	e00c3ba1 	and	r3, r12, r1, lsr #23
    2928:	e132000c 	teq	r2, r12
    292c:	1a000005 	bne	2948 <__aeabi_fdiv+0x128>
    2930:	e1b02480 	lsls	r2, r0, #9
    2934:	1affffb6 	bne	2814 <__aeabi_fmul+0x18c>
    2938:	e133000c 	teq	r3, r12
    293c:	1affffaf 	bne	2800 <__aeabi_fmul+0x178>
    2940:	e1a00001 	mov	r0, r1
    2944:	eaffffb2 	b	2814 <__aeabi_fmul+0x18c>
    2948:	e133000c 	teq	r3, r12
    294c:	1a000003 	bne	2960 <__aeabi_fdiv+0x140>
    2950:	e1b03481 	lsls	r3, r1, #9
    2954:	0affff97 	beq	27b8 <__aeabi_fmul+0x130>
    2958:	e1a00001 	mov	r0, r1
    295c:	eaffffac 	b	2814 <__aeabi_fmul+0x18c>
    2960:	e3d0c102 	bics	r12, r0, #-2147483648	; 0x80000000
    2964:	13d1c102 	bicsne	r12, r1, #-2147483648	; 0x80000000
    2968:	1affffde 	bne	28e8 <__aeabi_fdiv+0xc8>
    296c:	e3d02102 	bics	r2, r0, #-2147483648	; 0x80000000
    2970:	1affffa2 	bne	2800 <__aeabi_fmul+0x178>
    2974:	e3d13102 	bics	r3, r1, #-2147483648	; 0x80000000
    2978:	1affff8e 	bne	27b8 <__aeabi_fmul+0x130>
    297c:	eaffffa4 	b	2814 <__aeabi_fmul+0x18c>

00002980 <atexit>:
    2980:	e1a01000 	mov	r1, r0
    2984:	e3a00000 	mov	r0, #0
    2988:	e92d4008 	push	{r3, lr}
    298c:	e1a02000 	mov	r2, r0
    2990:	e1a03000 	mov	r3, r0
    2994:	eb000ed4 	bl	64ec <__register_exitproc>
    2998:	e8bd4008 	pop	{r3, lr}
    299c:	e12fff1e 	bx	lr

000029a0 <exit>:
    29a0:	e92d4008 	push	{r3, lr}
    29a4:	e3a01000 	mov	r1, #0
    29a8:	e1a04000 	mov	r4, r0
    29ac:	eb000f0b 	bl	65e0 <__call_exitprocs>
    29b0:	e59f3018 	ldr	r3, [pc, #24]	; 29d0 <exit+0x30>
    29b4:	e5930000 	ldr	r0, [r3]
    29b8:	e590303c 	ldr	r3, [r0, #60]	; 0x3c
    29bc:	e3530000 	cmp	r3, #0
    29c0:	11a0e00f 	movne	lr, pc
    29c4:	112fff13 	bxne	r3
    29c8:	e1a00004 	mov	r0, r4
    29cc:	eb004790 	bl	14814 <_exit>
    29d0:	00014f0c 	.word	0x00014f0c

000029d4 <_printf_r>:
    29d4:	e92d000e 	push	{r1, r2, r3}
    29d8:	e52de004 	push	{lr}		; (str lr, [sp, #-4]!)
    29dc:	e24dd008 	sub	sp, sp, #8
    29e0:	e28dc010 	add	r12, sp, #16
    29e4:	e5901008 	ldr	r1, [r0, #8]
    29e8:	e59d200c 	ldr	r2, [sp, #12]
    29ec:	e1a0300c 	mov	r3, r12
    29f0:	e58dc004 	str	r12, [sp, #4]
    29f4:	eb000076 	bl	2bd4 <_vfprintf_r>
    29f8:	e28dd008 	add	sp, sp, #8
    29fc:	e49de004 	pop	{lr}		; (ldr lr, [sp], #4)
    2a00:	e28dd00c 	add	sp, sp, #12
    2a04:	e12fff1e 	bx	lr

00002a08 <printf>:
    2a08:	e92d000f 	push	{r0, r1, r2, r3}
    2a0c:	e52de004 	push	{lr}		; (str lr, [sp, #-4]!)
    2a10:	e59f302c 	ldr	r3, [pc, #44]	; 2a44 <printf+0x3c>
    2a14:	e24dd00c 	sub	sp, sp, #12
    2a18:	e5930000 	ldr	r0, [r3]
    2a1c:	e28dc014 	add	r12, sp, #20
    2a20:	e5901008 	ldr	r1, [r0, #8]
    2a24:	e59d2010 	ldr	r2, [sp, #16]
    2a28:	e1a0300c 	mov	r3, r12
    2a2c:	e58dc004 	str	r12, [sp, #4]
    2a30:	eb000067 	bl	2bd4 <_vfprintf_r>
    2a34:	e28dd00c 	add	sp, sp, #12
    2a38:	e49de004 	pop	{lr}		; (ldr lr, [sp], #4)
    2a3c:	e28dd010 	add	sp, sp, #16
    2a40:	e12fff1e 	bx	lr
    2a44:	0019a448 	.word	0x0019a448

00002a48 <_puts_r>:
    2a48:	e92d4030 	push	{r4, r5, lr}
    2a4c:	e1a05000 	mov	r5, r0
    2a50:	e24dd024 	sub	sp, sp, #36	; 0x24
    2a54:	e1a00001 	mov	r0, r1
    2a58:	e1a04001 	mov	r4, r1
    2a5c:	eb000044 	bl	2b74 <strlen>
    2a60:	e59f307c 	ldr	r3, [pc, #124]	; 2ae4 <_puts_r+0x9c>
    2a64:	e5933000 	ldr	r3, [r3]
    2a68:	e1a02000 	mov	r2, r0
    2a6c:	e5933008 	ldr	r3, [r3, #8]
    2a70:	e58d2014 	str	r2, [sp, #20]
    2a74:	e59f206c 	ldr	r2, [pc, #108]	; 2ae8 <_puts_r+0xa0>
    2a78:	e1d310bc 	ldrh	r1, [r3, #12]
    2a7c:	e58d2018 	str	r2, [sp, #24]
    2a80:	e3a02001 	mov	r2, #1
    2a84:	e58d201c 	str	r2, [sp, #28]
    2a88:	e28d2010 	add	r2, sp, #16
    2a8c:	e3110a02 	tst	r1, #8192	; 0x2000
    2a90:	e58d2004 	str	r2, [sp, #4]
    2a94:	e3a02002 	mov	r2, #2
    2a98:	e58d2008 	str	r2, [sp, #8]
    2a9c:	05932064 	ldreq	r2, [r3, #100]	; 0x64
    2aa0:	03811a02 	orreq	r1, r1, #8192	; 0x2000
    2aa4:	03c22a02 	biceq	r2, r2, #8192	; 0x2000
    2aa8:	e2800001 	add	r0, r0, #1
    2aac:	01c310bc 	strheq	r1, [r3, #12]
    2ab0:	05832064 	streq	r2, [r3, #100]	; 0x64
    2ab4:	e58d000c 	str	r0, [sp, #12]
    2ab8:	e5951008 	ldr	r1, [r5, #8]
    2abc:	e1a00005 	mov	r0, r5
    2ac0:	e28d2004 	add	r2, sp, #4
    2ac4:	e58d4010 	str	r4, [sp, #16]
    2ac8:	eb00181c 	bl	8b40 <__sfvwrite_r>
    2acc:	e3500000 	cmp	r0, #0
    2ad0:	03a0000a 	moveq	r0, #10
    2ad4:	13e00000 	mvnne	r0, #0
    2ad8:	e28dd024 	add	sp, sp, #36	; 0x24
    2adc:	e8bd4030 	pop	{r4, r5, lr}
    2ae0:	e12fff1e 	bx	lr
    2ae4:	0019a448 	.word	0x0019a448
    2ae8:	00014f14 	.word	0x00014f14

00002aec <puts>:
    2aec:	e59f3008 	ldr	r3, [pc, #8]	; 2afc <puts+0x10>
    2af0:	e1a01000 	mov	r1, r0
    2af4:	e5930000 	ldr	r0, [r3]
    2af8:	eaffffd2 	b	2a48 <_puts_r>
    2afc:	0019a448 	.word	0x0019a448

00002b00 <scanf>:
    2b00:	e92d000f 	push	{r0, r1, r2, r3}
    2b04:	e52de004 	push	{lr}		; (str lr, [sp, #-4]!)
    2b08:	e59f302c 	ldr	r3, [pc, #44]	; 2b3c <scanf+0x3c>
    2b0c:	e24dd00c 	sub	sp, sp, #12
    2b10:	e5930000 	ldr	r0, [r3]
    2b14:	e28dc014 	add	r12, sp, #20
    2b18:	e5901004 	ldr	r1, [r0, #4]
    2b1c:	e59d2010 	ldr	r2, [sp, #16]
    2b20:	e1a0300c 	mov	r3, r12
    2b24:	e58dc004 	str	r12, [sp, #4]
    2b28:	eb000889 	bl	4d54 <__svfscanf_r>
    2b2c:	e28dd00c 	add	sp, sp, #12
    2b30:	e49de004 	pop	{lr}		; (ldr lr, [sp], #4)
    2b34:	e28dd010 	add	sp, sp, #16
    2b38:	e12fff1e 	bx	lr
    2b3c:	0019a448 	.word	0x0019a448

00002b40 <_scanf_r>:
    2b40:	e92d000e 	push	{r1, r2, r3}
    2b44:	e52de004 	push	{lr}		; (str lr, [sp, #-4]!)
    2b48:	e24dd008 	sub	sp, sp, #8
    2b4c:	e28dc010 	add	r12, sp, #16
    2b50:	e5901004 	ldr	r1, [r0, #4]
    2b54:	e59d200c 	ldr	r2, [sp, #12]
    2b58:	e1a0300c 	mov	r3, r12
    2b5c:	e58dc004 	str	r12, [sp, #4]
    2b60:	eb00087b 	bl	4d54 <__svfscanf_r>
    2b64:	e28dd008 	add	sp, sp, #8
    2b68:	e49de004 	pop	{lr}		; (ldr lr, [sp], #4)
    2b6c:	e28dd00c 	add	sp, sp, #12
    2b70:	e12fff1e 	bx	lr

00002b74 <strlen>:
    2b74:	e3c01003 	bic	r1, r0, #3
    2b78:	e2100003 	ands	r0, r0, #3
    2b7c:	e2600000 	rsb	r0, r0, #0
    2b80:	e4913004 	ldr	r3, [r1], #4
    2b84:	e280c004 	add	r12, r0, #4
    2b88:	e1a0c18c 	lsl	r12, r12, #3
    2b8c:	e3e02000 	mvn	r2, #0
    2b90:	11833c32 	orrne	r3, r3, r2, lsr r12
    2b94:	e3a0c001 	mov	r12, #1
    2b98:	e18cc40c 	orr	r12, r12, r12, lsl #8
    2b9c:	e18cc80c 	orr	r12, r12, r12, lsl #16
    2ba0:	e043200c 	sub	r2, r3, r12
    2ba4:	e1c22003 	bic	r2, r2, r3
    2ba8:	e012238c 	ands	r2, r2, r12, lsl #7
    2bac:	04913004 	ldreq	r3, [r1], #4
    2bb0:	02800004 	addeq	r0, r0, #4
    2bb4:	0afffff9 	beq	2ba0 <strlen+0x2c>
    2bb8:	e31300ff 	tst	r3, #255	; 0xff
    2bbc:	12800001 	addne	r0, r0, #1
    2bc0:	13130cff 	tstne	r3, #65280	; 0xff00
    2bc4:	12800001 	addne	r0, r0, #1
    2bc8:	131308ff 	tstne	r3, #16711680	; 0xff0000
    2bcc:	12800001 	addne	r0, r0, #1
    2bd0:	e12fff1e 	bx	lr

00002bd4 <_vfprintf_r>:
    2bd4:	e92d4ff0 	push	{r4, r5, r6, r7, r8, r9, r10, r11, lr}
    2bd8:	e24ddd15 	sub	sp, sp, #1344	; 0x540
    2bdc:	e24dd004 	sub	sp, sp, #4
    2be0:	e1a09001 	mov	r9, r1
    2be4:	e1a04002 	mov	r4, r2
    2be8:	e58d303c 	str	r3, [sp, #60]	; 0x3c
    2bec:	e58d002c 	str	r0, [sp, #44]	; 0x2c
    2bf0:	eb001978 	bl	91d8 <_localeconv_r>
    2bf4:	e5900000 	ldr	r0, [r0]
    2bf8:	e58d0058 	str	r0, [sp, #88]	; 0x58
    2bfc:	ebffffdc 	bl	2b74 <strlen>
    2c00:	e59d602c 	ldr	r6, [sp, #44]	; 0x2c
    2c04:	e3a0b000 	mov	r11, #0
    2c08:	e3a0c000 	mov	r12, #0
    2c0c:	e3560000 	cmp	r6, #0
    2c10:	e58d0064 	str	r0, [sp, #100]	; 0x64
    2c14:	e58db068 	str	r11, [sp, #104]	; 0x68
    2c18:	e58dc06c 	str	r12, [sp, #108]	; 0x6c
    2c1c:	0a000002 	beq	2c2c <_vfprintf_r+0x58>
    2c20:	e5963038 	ldr	r3, [r6, #56]	; 0x38
    2c24:	e3530000 	cmp	r3, #0
    2c28:	0a000101 	beq	3034 <_vfprintf_r+0x460>
    2c2c:	e1d980bc 	ldrh	r8, [r9, #12]
    2c30:	e3180a02 	tst	r8, #8192	; 0x2000
    2c34:	05993064 	ldreq	r3, [r9, #100]	; 0x64
    2c38:	03888a02 	orreq	r8, r8, #8192	; 0x2000
    2c3c:	03c33a02 	biceq	r3, r3, #8192	; 0x2000
    2c40:	01c980bc 	strheq	r8, [r9, #12]
    2c44:	05893064 	streq	r3, [r9, #100]	; 0x64
    2c48:	e3180008 	tst	r8, #8
    2c4c:	0a0000aa 	beq	2efc <_vfprintf_r+0x328>
    2c50:	e5993010 	ldr	r3, [r9, #16]
    2c54:	e3530000 	cmp	r3, #0
    2c58:	0a0000a7 	beq	2efc <_vfprintf_r+0x328>
    2c5c:	e208301a 	and	r3, r8, #26
    2c60:	e353000a 	cmp	r3, #10
    2c64:	0a0000c4 	beq	2f7c <_vfprintf_r+0x3a8>
    2c68:	e28d60d8 	add	r6, sp, #216	; 0xd8
    2c6c:	e28d70d7 	add	r7, sp, #215	; 0xd7
    2c70:	e3a03000 	mov	r3, #0
    2c74:	e28dbd05 	add	r11, sp, #320	; 0x140
    2c78:	e58d4028 	str	r4, [sp, #40]	; 0x28
    2c7c:	e0674006 	rsb	r4, r7, r6
    2c80:	e58d3044 	str	r3, [sp, #68]	; 0x44
    2c84:	e58d6054 	str	r6, [sp, #84]	; 0x54
    2c88:	e58d705c 	str	r7, [sp, #92]	; 0x5c
    2c8c:	e58db0a4 	str	r11, [sp, #164]	; 0xa4
    2c90:	e58d30ac 	str	r3, [sp, #172]	; 0xac
    2c94:	e58d30a8 	str	r3, [sp, #168]	; 0xa8
    2c98:	e58d3074 	str	r3, [sp, #116]	; 0x74
    2c9c:	e58d3070 	str	r3, [sp, #112]	; 0x70
    2ca0:	e58d3034 	str	r3, [sp, #52]	; 0x34
    2ca4:	e58d407c 	str	r4, [sp, #124]	; 0x7c
    2ca8:	e58d901c 	str	r9, [sp, #28]
    2cac:	e1a0c00b 	mov	r12, r11
    2cb0:	e1a0500b 	mov	r5, r11
    2cb4:	e59d6028 	ldr	r6, [sp, #40]	; 0x28
    2cb8:	e5d63000 	ldrb	r3, [r6]
    2cbc:	e3530025 	cmp	r3, #37	; 0x25
    2cc0:	13530000 	cmpne	r3, #0
    2cc4:	0a0000dd 	beq	3040 <_vfprintf_r+0x46c>
    2cc8:	e2863001 	add	r3, r6, #1
    2ccc:	e1a07003 	mov	r7, r3
    2cd0:	e5d33000 	ldrb	r3, [r3]
    2cd4:	e3530025 	cmp	r3, #37	; 0x25
    2cd8:	13530000 	cmpne	r3, #0
    2cdc:	e2873001 	add	r3, r7, #1
    2ce0:	1afffff9 	bne	2ccc <_vfprintf_r+0xf8>
    2ce4:	e59dc028 	ldr	r12, [sp, #40]	; 0x28
    2ce8:	e057800c 	subs	r8, r7, r12
    2cec:	0a00000d 	beq	2d28 <_vfprintf_r+0x154>
    2cf0:	e28d40a8 	add	r4, sp, #168	; 0xa8
    2cf4:	e8940050 	ldm	r4, {r4, r6}
    2cf8:	e2844001 	add	r4, r4, #1
    2cfc:	e0866008 	add	r6, r6, r8
    2d00:	e3540007 	cmp	r4, #7
    2d04:	e585c000 	str	r12, [r5]
    2d08:	e5858004 	str	r8, [r5, #4]
    2d0c:	e58d60ac 	str	r6, [sp, #172]	; 0xac
    2d10:	e58d40a8 	str	r4, [sp, #168]	; 0xa8
    2d14:	d2855008 	addle	r5, r5, #8
    2d18:	ca000084 	bgt	2f30 <_vfprintf_r+0x35c>
    2d1c:	e59d4034 	ldr	r4, [sp, #52]	; 0x34
    2d20:	e0844008 	add	r4, r4, r8
    2d24:	e58d4034 	str	r4, [sp, #52]	; 0x34
    2d28:	e5d73000 	ldrb	r3, [r7]
    2d2c:	e3530000 	cmp	r3, #0
    2d30:	0a000699 	beq	479c <_vfprintf_r+0x1bc8>
    2d34:	e2876001 	add	r6, r7, #1
    2d38:	e3a03000 	mov	r3, #0
    2d3c:	e58d6028 	str	r6, [sp, #40]	; 0x28
    2d40:	e5d78001 	ldrb	r8, [r7, #1]
    2d44:	e58d3030 	str	r3, [sp, #48]	; 0x30
    2d48:	e5cd3083 	strb	r3, [sp, #131]	; 0x83
    2d4c:	e58d3018 	str	r3, [sp, #24]
    2d50:	e3e04000 	mvn	r4, #0
    2d54:	e3a01020 	mov	r1, #32
    2d58:	e3a0202b 	mov	r2, #43	; 0x2b
    2d5c:	e1a03006 	mov	r3, r6
    2d60:	e2833001 	add	r3, r3, #1
    2d64:	e2480020 	sub	r0, r8, #32
    2d68:	e3500058 	cmp	r0, #88	; 0x58
    2d6c:	979ff100 	ldrls	pc, [pc, r0, lsl #2]
    2d70:	ea000224 	b	3608 <_vfprintf_r+0xa34>
    2d74:	00003644 	.word	0x00003644
    2d78:	00003608 	.word	0x00003608
    2d7c:	00003608 	.word	0x00003608
    2d80:	0000365c 	.word	0x0000365c
    2d84:	00003608 	.word	0x00003608
    2d88:	00003608 	.word	0x00003608
    2d8c:	00003608 	.word	0x00003608
    2d90:	00003608 	.word	0x00003608
    2d94:	00003608 	.word	0x00003608
    2d98:	00003608 	.word	0x00003608
    2d9c:	00003670 	.word	0x00003670
    2da0:	00003048 	.word	0x00003048
    2da4:	00003608 	.word	0x00003608
    2da8:	00002ee8 	.word	0x00002ee8
    2dac:	00003054 	.word	0x00003054
    2db0:	00003608 	.word	0x00003608
    2db4:	000030a0 	.word	0x000030a0
    2db8:	000030b4 	.word	0x000030b4
    2dbc:	000030b4 	.word	0x000030b4
    2dc0:	000030b4 	.word	0x000030b4
    2dc4:	000030b4 	.word	0x000030b4
    2dc8:	000030b4 	.word	0x000030b4
    2dcc:	000030b4 	.word	0x000030b4
    2dd0:	000030b4 	.word	0x000030b4
    2dd4:	000030b4 	.word	0x000030b4
    2dd8:	000030b4 	.word	0x000030b4
    2ddc:	00003608 	.word	0x00003608
    2de0:	00003608 	.word	0x00003608
    2de4:	00003608 	.word	0x00003608
    2de8:	00003608 	.word	0x00003608
    2dec:	00003608 	.word	0x00003608
    2df0:	00003608 	.word	0x00003608
    2df4:	00003608 	.word	0x00003608
    2df8:	00003608 	.word	0x00003608
    2dfc:	00003608 	.word	0x00003608
    2e00:	00003608 	.word	0x00003608
    2e04:	000030e4 	.word	0x000030e4
    2e08:	00003320 	.word	0x00003320
    2e0c:	00003608 	.word	0x00003608
    2e10:	00003320 	.word	0x00003320
    2e14:	00003608 	.word	0x00003608
    2e18:	00003608 	.word	0x00003608
    2e1c:	00003608 	.word	0x00003608
    2e20:	00003608 	.word	0x00003608
    2e24:	000033d0 	.word	0x000033d0
    2e28:	00003608 	.word	0x00003608
    2e2c:	00003608 	.word	0x00003608
    2e30:	000033e4 	.word	0x000033e4
    2e34:	00003608 	.word	0x00003608
    2e38:	00003608 	.word	0x00003608
    2e3c:	00003608 	.word	0x00003608
    2e40:	00003608 	.word	0x00003608
    2e44:	00003608 	.word	0x00003608
    2e48:	00003434 	.word	0x00003434
    2e4c:	00003608 	.word	0x00003608
    2e50:	00003608 	.word	0x00003608
    2e54:	0000347c 	.word	0x0000347c
    2e58:	00003608 	.word	0x00003608
    2e5c:	00003608 	.word	0x00003608
    2e60:	00003608 	.word	0x00003608
    2e64:	00003608 	.word	0x00003608
    2e68:	00003608 	.word	0x00003608
    2e6c:	00003608 	.word	0x00003608
    2e70:	00003608 	.word	0x00003608
    2e74:	00003608 	.word	0x00003608
    2e78:	00003608 	.word	0x00003608
    2e7c:	00003608 	.word	0x00003608
    2e80:	00003778 	.word	0x00003778
    2e84:	00003720 	.word	0x00003720
    2e88:	00003320 	.word	0x00003320
    2e8c:	00003320 	.word	0x00003320
    2e90:	00003320 	.word	0x00003320
    2e94:	00003764 	.word	0x00003764
    2e98:	00003720 	.word	0x00003720
    2e9c:	00003608 	.word	0x00003608
    2ea0:	00003608 	.word	0x00003608
    2ea4:	00003560 	.word	0x00003560
    2ea8:	00003608 	.word	0x00003608
    2eac:	00003590 	.word	0x00003590
    2eb0:	000035c4 	.word	0x000035c4
    2eb4:	000037b4 	.word	0x000037b4
    2eb8:	000034cc 	.word	0x000034cc
    2ebc:	00003608 	.word	0x00003608
    2ec0:	000034e0 	.word	0x000034e0
    2ec4:	00003608 	.word	0x00003608
    2ec8:	00003698 	.word	0x00003698
    2ecc:	00003608 	.word	0x00003608
    2ed0:	00003608 	.word	0x00003608
    2ed4:	000036e0 	.word	0x000036e0
    2ed8:	e59d6030 	ldr	r6, [sp, #48]	; 0x30
    2edc:	e2666000 	rsb	r6, r6, #0
    2ee0:	e58d6030 	str	r6, [sp, #48]	; 0x30
    2ee4:	e58d003c 	str	r0, [sp, #60]	; 0x3c
    2ee8:	e59d7018 	ldr	r7, [sp, #24]
    2eec:	e3877004 	orr	r7, r7, #4
    2ef0:	e58d7018 	str	r7, [sp, #24]
    2ef4:	e5d38000 	ldrb	r8, [r3]
    2ef8:	eaffff98 	b	2d60 <_vfprintf_r+0x18c>
    2efc:	e59d002c 	ldr	r0, [sp, #44]	; 0x2c
    2f00:	e1a01009 	mov	r1, r9
    2f04:	eb000d2a 	bl	63b4 <__swsetup_r>
    2f08:	e3500000 	cmp	r0, #0
    2f0c:	01d980bc 	ldrheq	r8, [r9, #12]
    2f10:	0affff51 	beq	2c5c <_vfprintf_r+0x88>
    2f14:	e3e0c000 	mvn	r12, #0
    2f18:	e58dc034 	str	r12, [sp, #52]	; 0x34
    2f1c:	e59d0034 	ldr	r0, [sp, #52]	; 0x34
    2f20:	e28ddf51 	add	sp, sp, #324	; 0x144
    2f24:	e28ddb01 	add	sp, sp, #1024	; 0x400
    2f28:	e8bd4ff0 	pop	{r4, r5, r6, r7, r8, r9, r10, r11, lr}
    2f2c:	e12fff1e 	bx	lr
    2f30:	e59d002c 	ldr	r0, [sp, #44]	; 0x2c
    2f34:	e59d101c 	ldr	r1, [sp, #28]
    2f38:	e28d20a4 	add	r2, sp, #164	; 0xa4
    2f3c:	eb00339e 	bl	fdbc <__sprint_r>
    2f40:	e3500000 	cmp	r0, #0
    2f44:	1a000007 	bne	2f68 <_vfprintf_r+0x394>
    2f48:	e28d5d05 	add	r5, sp, #320	; 0x140
    2f4c:	eaffff72 	b	2d1c <_vfprintf_r+0x148>
    2f50:	e59d002c 	ldr	r0, [sp, #44]	; 0x2c
    2f54:	e59d101c 	ldr	r1, [sp, #28]
    2f58:	e28d20a4 	add	r2, sp, #164	; 0xa4
    2f5c:	eb003396 	bl	fdbc <__sprint_r>
    2f60:	e3500000 	cmp	r0, #0
    2f64:	0a0002d2 	beq	3ab4 <_vfprintf_r+0xee0>
    2f68:	e59d901c 	ldr	r9, [sp, #28]
    2f6c:	e1d930bc 	ldrh	r3, [r9, #12]
    2f70:	e3130040 	tst	r3, #64	; 0x40
    2f74:	1affffe6 	bne	2f14 <_vfprintf_r+0x340>
    2f78:	eaffffe7 	b	2f1c <_vfprintf_r+0x348>
    2f7c:	e1d9c0be 	ldrh	r12, [r9, #14]
    2f80:	e31c0902 	tst	r12, #32768	; 0x8000
    2f84:	1affff37 	bne	2c68 <_vfprintf_r+0x94>
    2f88:	e1a02004 	mov	r2, r4
    2f8c:	e59f4fb0 	ldr	r4, [pc, #4016]	; 3f44 <_vfprintf_r+0x1370>
    2f90:	e28dbd15 	add	r11, sp, #1344	; 0x540
    2f94:	e3c88002 	bic	r8, r8, #2
    2f98:	e18b80b4 	strh	r8, [r11, r4]
    2f9c:	e5997064 	ldr	r7, [r9, #100]	; 0x64
    2fa0:	e599601c 	ldr	r6, [r9, #28]
    2fa4:	e599a024 	ldr	r10, [r9, #36]	; 0x24
    2fa8:	e2844002 	add	r4, r4, #2
    2fac:	e3a0eb01 	mov	lr, #1024	; 0x400
    2fb0:	e28d5d05 	add	r5, sp, #320	; 0x140
    2fb4:	e18bc0b4 	strh	r12, [r11, r4]
    2fb8:	e59d002c 	ldr	r0, [sp, #44]	; 0x2c
    2fbc:	e3a0c000 	mov	r12, #0
    2fc0:	e28d10d8 	add	r1, sp, #216	; 0xd8
    2fc4:	e59d303c 	ldr	r3, [sp, #60]	; 0x3c
    2fc8:	e58d713c 	str	r7, [sp, #316]	; 0x13c
    2fcc:	e58d60f4 	str	r6, [sp, #244]	; 0xf4
    2fd0:	e58da0fc 	str	r10, [sp, #252]	; 0xfc
    2fd4:	e58d50d8 	str	r5, [sp, #216]	; 0xd8
    2fd8:	e58d50e8 	str	r5, [sp, #232]	; 0xe8
    2fdc:	e58de0e0 	str	lr, [sp, #224]	; 0xe0
    2fe0:	e58de0ec 	str	lr, [sp, #236]	; 0xec
    2fe4:	e58dc0f0 	str	r12, [sp, #240]	; 0xf0
    2fe8:	ebfffef9 	bl	2bd4 <_vfprintf_r>
    2fec:	e3500000 	cmp	r0, #0
    2ff0:	e58d0034 	str	r0, [sp, #52]	; 0x34
    2ff4:	ba000006 	blt	3014 <_vfprintf_r+0x440>
    2ff8:	e59d002c 	ldr	r0, [sp, #44]	; 0x2c
    2ffc:	e28d10d8 	add	r1, sp, #216	; 0xd8
    3000:	eb001408 	bl	8028 <_fflush_r>
    3004:	e59dc034 	ldr	r12, [sp, #52]	; 0x34
    3008:	e3500000 	cmp	r0, #0
    300c:	13e0c000 	mvnne	r12, #0
    3010:	e58dc034 	str	r12, [sp, #52]	; 0x34
    3014:	e59f3f28 	ldr	r3, [pc, #3880]	; 3f44 <_vfprintf_r+0x1370>
    3018:	e28d0d15 	add	r0, sp, #1344	; 0x540
    301c:	e19030b3 	ldrh	r3, [r0, r3]
    3020:	e3130040 	tst	r3, #64	; 0x40
    3024:	11d930bc 	ldrhne	r3, [r9, #12]
    3028:	13833040 	orrne	r3, r3, #64	; 0x40
    302c:	11c930bc 	strhne	r3, [r9, #12]
    3030:	eaffffb9 	b	2f1c <_vfprintf_r+0x348>
    3034:	e1a00006 	mov	r0, r6
    3038:	eb0014d4 	bl	8390 <__sinit>
    303c:	eafffefa 	b	2c2c <_vfprintf_r+0x58>
    3040:	e59d7028 	ldr	r7, [sp, #40]	; 0x28
    3044:	eaffff37 	b	2d28 <_vfprintf_r+0x154>
    3048:	e5cd2083 	strb	r2, [sp, #131]	; 0x83
    304c:	e5d38000 	ldrb	r8, [r3]
    3050:	eaffff42 	b	2d60 <_vfprintf_r+0x18c>
    3054:	e1a0c003 	mov	r12, r3
    3058:	e4dc8001 	ldrb	r8, [r12], #1
    305c:	e358002a 	cmp	r8, #42	; 0x2a
    3060:	0a000717 	beq	4cc4 <_vfprintf_r+0x20f0>
    3064:	e2480030 	sub	r0, r8, #48	; 0x30
    3068:	e3500009 	cmp	r0, #9
    306c:	81a0300c 	movhi	r3, r12
    3070:	83a04000 	movhi	r4, #0
    3074:	8affff3a 	bhi	2d64 <_vfprintf_r+0x190>
    3078:	e3a04000 	mov	r4, #0
    307c:	e4dc8001 	ldrb	r8, [r12], #1
    3080:	e0844104 	add	r4, r4, r4, lsl #2
    3084:	e0804084 	add	r4, r0, r4, lsl #1
    3088:	e2480030 	sub	r0, r8, #48	; 0x30
    308c:	e3500009 	cmp	r0, #9
    3090:	e1a0300c 	mov	r3, r12
    3094:	9afffff8 	bls	307c <_vfprintf_r+0x4a8>
    3098:	e1844fc4 	orr	r4, r4, r4, asr #31
    309c:	eaffff30 	b	2d64 <_vfprintf_r+0x190>
    30a0:	e59dc018 	ldr	r12, [sp, #24]
    30a4:	e38cc080 	orr	r12, r12, #128	; 0x80
    30a8:	e58dc018 	str	r12, [sp, #24]
    30ac:	e5d38000 	ldrb	r8, [r3]
    30b0:	eaffff2a 	b	2d60 <_vfprintf_r+0x18c>
    30b4:	e1a0c003 	mov	r12, r3
    30b8:	e3a00000 	mov	r0, #0
    30bc:	e2483030 	sub	r3, r8, #48	; 0x30
    30c0:	e4dc8001 	ldrb	r8, [r12], #1
    30c4:	e2486030 	sub	r6, r8, #48	; 0x30
    30c8:	e0800100 	add	r0, r0, r0, lsl #2
    30cc:	e3560009 	cmp	r6, #9
    30d0:	e0830080 	add	r0, r3, r0, lsl #1
    30d4:	e1a0300c 	mov	r3, r12
    30d8:	9afffff7 	bls	30bc <_vfprintf_r+0x4e8>
    30dc:	e58d0030 	str	r0, [sp, #48]	; 0x30
    30e0:	eaffff1f 	b	2d64 <_vfprintf_r+0x190>
    30e4:	e59d6018 	ldr	r6, [sp, #24]
    30e8:	e3866010 	orr	r6, r6, #16
    30ec:	e58d6018 	str	r6, [sp, #24]
    30f0:	e59d7018 	ldr	r7, [sp, #24]
    30f4:	e3170020 	tst	r7, #32
    30f8:	e58d3028 	str	r3, [sp, #40]	; 0x28
    30fc:	0a00018b 	beq	3730 <_vfprintf_r+0xb5c>
    3100:	e59db03c 	ldr	r11, [sp, #60]	; 0x3c
    3104:	e28b1007 	add	r1, r11, #7
    3108:	e3c11007 	bic	r1, r1, #7
    310c:	e891000c 	ldm	r1, {r2, r3}
    3110:	e2811008 	add	r1, r1, #8
    3114:	e58d103c 	str	r1, [sp, #60]	; 0x3c
    3118:	e1a06002 	mov	r6, r2
    311c:	e1a07003 	mov	r7, r3
    3120:	e3520000 	cmp	r2, #0
    3124:	e2d30000 	sbcs	r0, r3, #0
    3128:	ba0004ae 	blt	43e8 <_vfprintf_r+0x1814>
    312c:	e1961007 	orrs	r1, r6, r7
    3130:	03a02000 	moveq	r2, #0
    3134:	13a02001 	movne	r2, #1
    3138:	e3a03001 	mov	r3, #1
    313c:	e3540000 	cmp	r4, #0
    3140:	a59dc018 	ldrge	r12, [sp, #24]
    3144:	a3ccc080 	bicge	r12, r12, #128	; 0x80
    3148:	a58dc018 	strge	r12, [sp, #24]
    314c:	e3540000 	cmp	r4, #0
    3150:	13822001 	orrne	r2, r2, #1
    3154:	e3520000 	cmp	r2, #0
    3158:	0a0002a4 	beq	3bf0 <_vfprintf_r+0x101c>
    315c:	e3530001 	cmp	r3, #1
    3160:	0a000397 	beq	3fc4 <_vfprintf_r+0x13f0>
    3164:	e3530002 	cmp	r3, #2
    3168:	e59dc05c 	ldr	r12, [sp, #92]	; 0x5c
    316c:	0a000380 	beq	3f74 <_vfprintf_r+0x13a0>
    3170:	e3a00007 	mov	r0, #7
    3174:	e1a0a1a6 	lsr	r10, r6, #3
    3178:	e18aae87 	orr	r10, r10, r7, lsl #29
    317c:	e0062000 	and	r2, r6, r0
    3180:	e1a031a7 	lsr	r3, r7, #3
    3184:	e1a07003 	mov	r7, r3
    3188:	e1a0600a 	mov	r6, r10
    318c:	e2822030 	add	r2, r2, #48	; 0x30
    3190:	e20220ff 	and	r2, r2, #255	; 0xff
    3194:	e196b007 	orrs	r11, r6, r7
    3198:	e1a0300c 	mov	r3, r12
    319c:	e5cc2000 	strb	r2, [r12]
    31a0:	e24cc001 	sub	r12, r12, #1
    31a4:	1afffff2 	bne	3174 <_vfprintf_r+0x5a0>
    31a8:	e59d6018 	ldr	r6, [sp, #24]
    31ac:	e3160001 	tst	r6, #1
    31b0:	e58d304c 	str	r3, [sp, #76]	; 0x4c
    31b4:	1a00047f 	bne	43b8 <_vfprintf_r+0x17e4>
    31b8:	e59d7054 	ldr	r7, [sp, #84]	; 0x54
    31bc:	e0637007 	rsb	r7, r3, r7
    31c0:	e58d7038 	str	r7, [sp, #56]	; 0x38
    31c4:	e59d7038 	ldr	r7, [sp, #56]	; 0x38
    31c8:	e3a0b000 	mov	r11, #0
    31cc:	e1570004 	cmp	r7, r4
    31d0:	b1a07004 	movlt	r7, r4
    31d4:	e58d7020 	str	r7, [sp, #32]
    31d8:	e5dd3083 	ldrb	r3, [sp, #131]	; 0x83
    31dc:	e58d4040 	str	r4, [sp, #64]	; 0x40
    31e0:	e58db060 	str	r11, [sp, #96]	; 0x60
    31e4:	e3530000 	cmp	r3, #0
    31e8:	0a000002 	beq	31f8 <_vfprintf_r+0x624>
    31ec:	e59d7020 	ldr	r7, [sp, #32]
    31f0:	e2877001 	add	r7, r7, #1
    31f4:	e58d7020 	str	r7, [sp, #32]
    31f8:	e59db018 	ldr	r11, [sp, #24]
    31fc:	e21bb002 	ands	r11, r11, #2
    3200:	159dc020 	ldrne	r12, [sp, #32]
    3204:	e59d3018 	ldr	r3, [sp, #24]
    3208:	128cc002 	addne	r12, r12, #2
    320c:	158dc020 	strne	r12, [sp, #32]
    3210:	e2133084 	ands	r3, r3, #132	; 0x84
    3214:	e58db048 	str	r11, [sp, #72]	; 0x48
    3218:	e58d3050 	str	r3, [sp, #80]	; 0x50
    321c:	1a000178 	bne	3804 <_vfprintf_r+0xc30>
    3220:	e59d4030 	ldr	r4, [sp, #48]	; 0x30
    3224:	e59d6020 	ldr	r6, [sp, #32]
    3228:	e0667004 	rsb	r7, r6, r4
    322c:	e3570000 	cmp	r7, #0
    3230:	da000173 	ble	3804 <_vfprintf_r+0xc30>
    3234:	e28d40a8 	add	r4, sp, #168	; 0xa8
    3238:	e3570010 	cmp	r7, #16
    323c:	e8940050 	ldm	r4, {r4, r6}
    3240:	e59f9d00 	ldr	r9, [pc, #3328]	; 3f48 <_vfprintf_r+0x1374>
    3244:	da000023 	ble	32d8 <_vfprintf_r+0x704>
    3248:	e28da0a4 	add	r10, sp, #164	; 0xa4
    324c:	e1a03009 	mov	r3, r9
    3250:	e58d8078 	str	r8, [sp, #120]	; 0x78
    3254:	e1a09007 	mov	r9, r7
    3258:	e1a0800a 	mov	r8, r10
    325c:	e3a0b010 	mov	r11, #16
    3260:	e59da02c 	ldr	r10, [sp, #44]	; 0x2c
    3264:	e1a07003 	mov	r7, r3
    3268:	ea000002 	b	3278 <_vfprintf_r+0x6a4>
    326c:	e2499010 	sub	r9, r9, #16
    3270:	e3590010 	cmp	r9, #16
    3274:	da000013 	ble	32c8 <_vfprintf_r+0x6f4>
    3278:	e2844001 	add	r4, r4, #1
    327c:	e3540007 	cmp	r4, #7
    3280:	e2866010 	add	r6, r6, #16
    3284:	e8850880 	stm	r5, {r7, r11}
    3288:	e58d60ac 	str	r6, [sp, #172]	; 0xac
    328c:	e58d40a8 	str	r4, [sp, #168]	; 0xa8
    3290:	d2855008 	addle	r5, r5, #8
    3294:	dafffff4 	ble	326c <_vfprintf_r+0x698>
    3298:	e1a0000a 	mov	r0, r10
    329c:	e59d101c 	ldr	r1, [sp, #28]
    32a0:	e1a02008 	mov	r2, r8
    32a4:	eb0032c4 	bl	fdbc <__sprint_r>
    32a8:	e3500000 	cmp	r0, #0
    32ac:	1affff2d 	bne	2f68 <_vfprintf_r+0x394>
    32b0:	e2499010 	sub	r9, r9, #16
    32b4:	e28d40a8 	add	r4, sp, #168	; 0xa8
    32b8:	e3590010 	cmp	r9, #16
    32bc:	e8940050 	ldm	r4, {r4, r6}
    32c0:	e28d5d05 	add	r5, sp, #320	; 0x140
    32c4:	caffffeb 	bgt	3278 <_vfprintf_r+0x6a4>
    32c8:	e1a03007 	mov	r3, r7
    32cc:	e59d8078 	ldr	r8, [sp, #120]	; 0x78
    32d0:	e1a07009 	mov	r7, r9
    32d4:	e1a09003 	mov	r9, r3
    32d8:	e2844001 	add	r4, r4, #1
    32dc:	e0866007 	add	r6, r6, r7
    32e0:	e3540007 	cmp	r4, #7
    32e4:	e5859000 	str	r9, [r5]
    32e8:	e5857004 	str	r7, [r5, #4]
    32ec:	e58d60ac 	str	r6, [sp, #172]	; 0xac
    32f0:	e58d40a8 	str	r4, [sp, #168]	; 0xa8
    32f4:	d2855008 	addle	r5, r5, #8
    32f8:	da000142 	ble	3808 <_vfprintf_r+0xc34>
    32fc:	e59d002c 	ldr	r0, [sp, #44]	; 0x2c
    3300:	e59d101c 	ldr	r1, [sp, #28]
    3304:	e28d20a4 	add	r2, sp, #164	; 0xa4
    3308:	eb0032ab 	bl	fdbc <__sprint_r>
    330c:	e3500000 	cmp	r0, #0
    3310:	1affff14 	bne	2f68 <_vfprintf_r+0x394>
    3314:	e59d60ac 	ldr	r6, [sp, #172]	; 0xac
    3318:	e28d5d05 	add	r5, sp, #320	; 0x140
    331c:	ea000139 	b	3808 <_vfprintf_r+0xc34>
    3320:	e59d6018 	ldr	r6, [sp, #24]
    3324:	e3160008 	tst	r6, #8
    3328:	e58d3028 	str	r3, [sp, #40]	; 0x28
    332c:	0a000493 	beq	4580 <_vfprintf_r+0x19ac>
    3330:	e59d703c 	ldr	r7, [sp, #60]	; 0x3c
    3334:	e2871007 	add	r1, r7, #7
    3338:	e3c11007 	bic	r1, r1, #7
    333c:	e591a000 	ldr	r10, [r1]
    3340:	e5917004 	ldr	r7, [r1, #4]
    3344:	e1a0b00a 	mov	r11, r10
    3348:	e1a0c007 	mov	r12, r7
    334c:	e2811008 	add	r1, r1, #8
    3350:	e58db068 	str	r11, [sp, #104]	; 0x68
    3354:	e58dc06c 	str	r12, [sp, #108]	; 0x6c
    3358:	e58d103c 	str	r1, [sp, #60]	; 0x3c
    335c:	e1a01007 	mov	r1, r7
    3360:	e1a0000a 	mov	r0, r10
    3364:	eb0020bb 	bl	b658 <__fpclassifyd>
    3368:	e3500001 	cmp	r0, #1
    336c:	e1a01007 	mov	r1, r7
    3370:	e1a0000a 	mov	r0, r10
    3374:	1a000426 	bne	4414 <_vfprintf_r+0x1840>
    3378:	e3a03000 	mov	r3, #0
    337c:	e3a02000 	mov	r2, #0
    3380:	ebfffbe6 	bl	2320 <__aeabi_dcmplt>
    3384:	e3500000 	cmp	r0, #0
    3388:	13a0302d 	movne	r3, #45	; 0x2d
    338c:	e59d7018 	ldr	r7, [sp, #24]
    3390:	e59f2bb4 	ldr	r2, [pc, #2996]	; 3f4c <_vfprintf_r+0x1378>
    3394:	e59f1bb4 	ldr	r1, [pc, #2996]	; 3f50 <_vfprintf_r+0x137c>
    3398:	05dd3083 	ldrbeq	r3, [sp, #131]	; 0x83
    339c:	15cd3083 	strbne	r3, [sp, #131]	; 0x83
    33a0:	e3580047 	cmp	r8, #71	; 0x47
    33a4:	e3a04003 	mov	r4, #3
    33a8:	e3a06000 	mov	r6, #0
    33ac:	d1a01002 	movle	r1, r2
    33b0:	e3c77080 	bic	r7, r7, #128	; 0x80
    33b4:	e58d4020 	str	r4, [sp, #32]
    33b8:	e58d6040 	str	r6, [sp, #64]	; 0x40
    33bc:	e58d104c 	str	r1, [sp, #76]	; 0x4c
    33c0:	e58d7018 	str	r7, [sp, #24]
    33c4:	e58d4038 	str	r4, [sp, #56]	; 0x38
    33c8:	e58d6060 	str	r6, [sp, #96]	; 0x60
    33cc:	eaffff84 	b	31e4 <_vfprintf_r+0x610>
    33d0:	e59d6018 	ldr	r6, [sp, #24]
    33d4:	e3866008 	orr	r6, r6, #8
    33d8:	e58d6018 	str	r6, [sp, #24]
    33dc:	e5d38000 	ldrb	r8, [r3]
    33e0:	eafffe5e 	b	2d60 <_vfprintf_r+0x18c>
    33e4:	e59d6018 	ldr	r6, [sp, #24]
    33e8:	e3866010 	orr	r6, r6, #16
    33ec:	e58d6018 	str	r6, [sp, #24]
    33f0:	e59d7018 	ldr	r7, [sp, #24]
    33f4:	e58d3028 	str	r3, [sp, #40]	; 0x28
    33f8:	e2173020 	ands	r3, r7, #32
    33fc:	0a000074 	beq	35d4 <_vfprintf_r+0xa00>
    3400:	e59db03c 	ldr	r11, [sp, #60]	; 0x3c
    3404:	e28b3007 	add	r3, r11, #7
    3408:	e3c33007 	bic	r3, r3, #7
    340c:	e89300c0 	ldm	r3, {r6, r7}
    3410:	e2833008 	add	r3, r3, #8
    3414:	e196c007 	orrs	r12, r6, r7
    3418:	e58d303c 	str	r3, [sp, #60]	; 0x3c
    341c:	03a02000 	moveq	r2, #0
    3420:	13a02001 	movne	r2, #1
    3424:	e3a03000 	mov	r3, #0
    3428:	e3a01000 	mov	r1, #0
    342c:	e5cd1083 	strb	r1, [sp, #131]	; 0x83
    3430:	eaffff41 	b	313c <_vfprintf_r+0x568>
    3434:	e59d6018 	ldr	r6, [sp, #24]
    3438:	e3866010 	orr	r6, r6, #16
    343c:	e58d6018 	str	r6, [sp, #24]
    3440:	e59d7018 	ldr	r7, [sp, #24]
    3444:	e3170020 	tst	r7, #32
    3448:	e58d3028 	str	r3, [sp, #40]	; 0x28
    344c:	0a000095 	beq	36a8 <_vfprintf_r+0xad4>
    3450:	e59db03c 	ldr	r11, [sp, #60]	; 0x3c
    3454:	e28b3007 	add	r3, r11, #7
    3458:	e3c33007 	bic	r3, r3, #7
    345c:	e89300c0 	ldm	r3, {r6, r7}
    3460:	e2833008 	add	r3, r3, #8
    3464:	e196c007 	orrs	r12, r6, r7
    3468:	e58d303c 	str	r3, [sp, #60]	; 0x3c
    346c:	03a02000 	moveq	r2, #0
    3470:	13a02001 	movne	r2, #1
    3474:	e3a03001 	mov	r3, #1
    3478:	eaffffea 	b	3428 <_vfprintf_r+0x854>
    347c:	e59db018 	ldr	r11, [sp, #24]
    3480:	e59f7acc 	ldr	r7, [pc, #2764]	; 3f54 <_vfprintf_r+0x1380>
    3484:	e31b0020 	tst	r11, #32
    3488:	e58d3028 	str	r3, [sp, #40]	; 0x28
    348c:	e58d7074 	str	r7, [sp, #116]	; 0x74
    3490:	0a000098 	beq	36f8 <_vfprintf_r+0xb24>
    3494:	e59dc03c 	ldr	r12, [sp, #60]	; 0x3c
    3498:	e28c3007 	add	r3, r12, #7
    349c:	e3c33007 	bic	r3, r3, #7
    34a0:	e2836008 	add	r6, r3, #8
    34a4:	e58d603c 	str	r6, [sp, #60]	; 0x3c
    34a8:	e89300c0 	ldm	r3, {r6, r7}
    34ac:	e59db018 	ldr	r11, [sp, #24]
    34b0:	e31b0001 	tst	r11, #1
    34b4:	1a0002f2 	bne	4084 <_vfprintf_r+0x14b0>
    34b8:	e196c007 	orrs	r12, r6, r7
    34bc:	03a02000 	moveq	r2, #0
    34c0:	13a02001 	movne	r2, #1
    34c4:	e3a03002 	mov	r3, #2
    34c8:	eaffffd6 	b	3428 <_vfprintf_r+0x854>
    34cc:	e59d6018 	ldr	r6, [sp, #24]
    34d0:	e3866020 	orr	r6, r6, #32
    34d4:	e58d6018 	str	r6, [sp, #24]
    34d8:	e5d38000 	ldrb	r8, [r3]
    34dc:	eafffe1f 	b	2d60 <_vfprintf_r+0x18c>
    34e0:	e3a06000 	mov	r6, #0
    34e4:	e5cd6083 	strb	r6, [sp, #131]	; 0x83
    34e8:	e59d703c 	ldr	r7, [sp, #60]	; 0x3c
    34ec:	e5977000 	ldr	r7, [r7]
    34f0:	e59db03c 	ldr	r11, [sp, #60]	; 0x3c
    34f4:	e1570006 	cmp	r7, r6
    34f8:	e58d704c 	str	r7, [sp, #76]	; 0x4c
    34fc:	e58d3028 	str	r3, [sp, #40]	; 0x28
    3500:	e28b7004 	add	r7, r11, #4
    3504:	0a000536 	beq	49e4 <_vfprintf_r+0x1e10>
    3508:	e3540000 	cmp	r4, #0
    350c:	e59d004c 	ldr	r0, [sp, #76]	; 0x4c
    3510:	ba000513 	blt	4964 <_vfprintf_r+0x1d90>
    3514:	e1a01006 	mov	r1, r6
    3518:	e1a02004 	mov	r2, r4
    351c:	eb0019cf 	bl	9c60 <memchr>
    3520:	e3500000 	cmp	r0, #0
    3524:	0a000584 	beq	4b3c <_vfprintf_r+0x1f68>
    3528:	e59dc04c 	ldr	r12, [sp, #76]	; 0x4c
    352c:	e06c0000 	rsb	r0, r12, r0
    3530:	e1500004 	cmp	r0, r4
    3534:	e58d0038 	str	r0, [sp, #56]	; 0x38
    3538:	e58d6040 	str	r6, [sp, #64]	; 0x40
    353c:	da00049f 	ble	47c0 <_vfprintf_r+0x1bec>
    3540:	e58d703c 	str	r7, [sp, #60]	; 0x3c
    3544:	e59d7040 	ldr	r7, [sp, #64]	; 0x40
    3548:	e1c46fc4 	bic	r6, r4, r4, asr #31
    354c:	e58d6020 	str	r6, [sp, #32]
    3550:	e5dd3083 	ldrb	r3, [sp, #131]	; 0x83
    3554:	e58d4038 	str	r4, [sp, #56]	; 0x38
    3558:	e58d7060 	str	r7, [sp, #96]	; 0x60
    355c:	eaffff20 	b	31e4 <_vfprintf_r+0x610>
    3560:	e5d38000 	ldrb	r8, [r3]
    3564:	e358006c 	cmp	r8, #108	; 0x6c
    3568:	059db018 	ldreq	r11, [sp, #24]
    356c:	159dc018 	ldrne	r12, [sp, #24]
    3570:	e1a00003 	mov	r0, r3
    3574:	038bb020 	orreq	r11, r11, #32
    3578:	138cc010 	orrne	r12, r12, #16
    357c:	02833001 	addeq	r3, r3, #1
    3580:	058db018 	streq	r11, [sp, #24]
    3584:	05d08001 	ldrbeq	r8, [r0, #1]
    3588:	158dc018 	strne	r12, [sp, #24]
    358c:	eafffdf3 	b	2d60 <_vfprintf_r+0x18c>
    3590:	e59d4018 	ldr	r4, [sp, #24]
    3594:	e3140020 	tst	r4, #32
    3598:	e58d3028 	str	r3, [sp, #40]	; 0x28
    359c:	0a000403 	beq	45b0 <_vfprintf_r+0x19dc>
    35a0:	e59d603c 	ldr	r6, [sp, #60]	; 0x3c
    35a4:	e59d2034 	ldr	r2, [sp, #52]	; 0x34
    35a8:	e5963000 	ldr	r3, [r6]
    35ac:	e1a01fc2 	asr	r1, r2, #31
    35b0:	e2866004 	add	r6, r6, #4
    35b4:	e5832000 	str	r2, [r3]
    35b8:	e5831004 	str	r1, [r3, #4]
    35bc:	e58d603c 	str	r6, [sp, #60]	; 0x3c
    35c0:	eafffdbb 	b	2cb4 <_vfprintf_r+0xe0>
    35c4:	e59d7018 	ldr	r7, [sp, #24]
    35c8:	e58d3028 	str	r3, [sp, #40]	; 0x28
    35cc:	e2173020 	ands	r3, r7, #32
    35d0:	1affff8a 	bne	3400 <_vfprintf_r+0x82c>
    35d4:	e59d6018 	ldr	r6, [sp, #24]
    35d8:	e2161010 	ands	r1, r6, #16
    35dc:	0a00041e 	beq	465c <_vfprintf_r+0x1a88>
    35e0:	e59d703c 	ldr	r7, [sp, #60]	; 0x3c
    35e4:	e59db03c 	ldr	r11, [sp, #60]	; 0x3c
    35e8:	e5972000 	ldr	r2, [r7]
    35ec:	e3a07000 	mov	r7, #0
    35f0:	e1a06002 	mov	r6, r2
    35f4:	e28bb004 	add	r11, r11, #4
    35f8:	e0522007 	subs	r2, r2, r7
    35fc:	13a02001 	movne	r2, #1
    3600:	e58db03c 	str	r11, [sp, #60]	; 0x3c
    3604:	eaffff87 	b	3428 <_vfprintf_r+0x854>
    3608:	e3580000 	cmp	r8, #0
    360c:	e58d3028 	str	r3, [sp, #40]	; 0x28
    3610:	0a000461 	beq	479c <_vfprintf_r+0x1bc8>
    3614:	e3a0c001 	mov	r12, #1
    3618:	e3a03000 	mov	r3, #0
    361c:	e28d40b0 	add	r4, sp, #176	; 0xb0
    3620:	e58dc020 	str	r12, [sp, #32]
    3624:	e5cd80b0 	strb	r8, [sp, #176]	; 0xb0
    3628:	e5cd3083 	strb	r3, [sp, #131]	; 0x83
    362c:	e58dc038 	str	r12, [sp, #56]	; 0x38
    3630:	e58d404c 	str	r4, [sp, #76]	; 0x4c
    3634:	e3a04000 	mov	r4, #0
    3638:	e58d4040 	str	r4, [sp, #64]	; 0x40
    363c:	e58d4060 	str	r4, [sp, #96]	; 0x60
    3640:	eafffeec 	b	31f8 <_vfprintf_r+0x624>
    3644:	e5dd0083 	ldrb	r0, [sp, #131]	; 0x83
    3648:	e3500000 	cmp	r0, #0
    364c:	1a00036e 	bne	440c <_vfprintf_r+0x1838>
    3650:	e5cd1083 	strb	r1, [sp, #131]	; 0x83
    3654:	e5d38000 	ldrb	r8, [r3]
    3658:	eafffdc0 	b	2d60 <_vfprintf_r+0x18c>
    365c:	e59d7018 	ldr	r7, [sp, #24]
    3660:	e3877001 	orr	r7, r7, #1
    3664:	e58d7018 	str	r7, [sp, #24]
    3668:	e5d38000 	ldrb	r8, [r3]
    366c:	eafffdbb 	b	2d60 <_vfprintf_r+0x18c>
    3670:	e59db03c 	ldr	r11, [sp, #60]	; 0x3c
    3674:	e59bb000 	ldr	r11, [r11]
    3678:	e59dc03c 	ldr	r12, [sp, #60]	; 0x3c
    367c:	e35b0000 	cmp	r11, #0
    3680:	e58db030 	str	r11, [sp, #48]	; 0x30
    3684:	e28c0004 	add	r0, r12, #4
    3688:	bafffe12 	blt	2ed8 <_vfprintf_r+0x304>
    368c:	e5d38000 	ldrb	r8, [r3]
    3690:	e58d003c 	str	r0, [sp, #60]	; 0x3c
    3694:	eafffdb1 	b	2d60 <_vfprintf_r+0x18c>
    3698:	e59d7018 	ldr	r7, [sp, #24]
    369c:	e3170020 	tst	r7, #32
    36a0:	e58d3028 	str	r3, [sp, #40]	; 0x28
    36a4:	1affff69 	bne	3450 <_vfprintf_r+0x87c>
    36a8:	e59d6018 	ldr	r6, [sp, #24]
    36ac:	e3160010 	tst	r6, #16
    36b0:	0a0003e3 	beq	4644 <_vfprintf_r+0x1a70>
    36b4:	e59d703c 	ldr	r7, [sp, #60]	; 0x3c
    36b8:	e5972000 	ldr	r2, [r7]
    36bc:	e59db03c 	ldr	r11, [sp, #60]	; 0x3c
    36c0:	e3a07000 	mov	r7, #0
    36c4:	e1a06002 	mov	r6, r2
    36c8:	e28bb004 	add	r11, r11, #4
    36cc:	e0522007 	subs	r2, r2, r7
    36d0:	13a02001 	movne	r2, #1
    36d4:	e58db03c 	str	r11, [sp, #60]	; 0x3c
    36d8:	e3a03001 	mov	r3, #1
    36dc:	eaffff51 	b	3428 <_vfprintf_r+0x854>
    36e0:	e59db018 	ldr	r11, [sp, #24]
    36e4:	e59f686c 	ldr	r6, [pc, #2156]	; 3f58 <_vfprintf_r+0x1384>
    36e8:	e31b0020 	tst	r11, #32
    36ec:	e58d3028 	str	r3, [sp, #40]	; 0x28
    36f0:	e58d6074 	str	r6, [sp, #116]	; 0x74
    36f4:	1affff66 	bne	3494 <_vfprintf_r+0x8c0>
    36f8:	e59d7018 	ldr	r7, [sp, #24]
    36fc:	e3170010 	tst	r7, #16
    3700:	0a0003c4 	beq	4618 <_vfprintf_r+0x1a44>
    3704:	e59db03c 	ldr	r11, [sp, #60]	; 0x3c
    3708:	e59b3000 	ldr	r3, [r11]
    370c:	e28bb004 	add	r11, r11, #4
    3710:	e1a06003 	mov	r6, r3
    3714:	e3a07000 	mov	r7, #0
    3718:	e58db03c 	str	r11, [sp, #60]	; 0x3c
    371c:	eaffff62 	b	34ac <_vfprintf_r+0x8d8>
    3720:	e59d7018 	ldr	r7, [sp, #24]
    3724:	e3170020 	tst	r7, #32
    3728:	e58d3028 	str	r3, [sp, #40]	; 0x28
    372c:	1afffe73 	bne	3100 <_vfprintf_r+0x52c>
    3730:	e59dc018 	ldr	r12, [sp, #24]
    3734:	e31c0010 	tst	r12, #16
    3738:	0a0003b0 	beq	4600 <_vfprintf_r+0x1a2c>
    373c:	e59d603c 	ldr	r6, [sp, #60]	; 0x3c
    3740:	e5963000 	ldr	r3, [r6]
    3744:	e59db03c 	ldr	r11, [sp, #60]	; 0x3c
    3748:	e1a07fc3 	asr	r7, r3, #31
    374c:	e28bb004 	add	r11, r11, #4
    3750:	e1a06003 	mov	r6, r3
    3754:	e1a02003 	mov	r2, r3
    3758:	e58db03c 	str	r11, [sp, #60]	; 0x3c
    375c:	e1a03007 	mov	r3, r7
    3760:	eafffe6e 	b	3120 <_vfprintf_r+0x54c>
    3764:	e59d7018 	ldr	r7, [sp, #24]
    3768:	e3877040 	orr	r7, r7, #64	; 0x40
    376c:	e58d7018 	str	r7, [sp, #24]
    3770:	e5d38000 	ldrb	r8, [r3]
    3774:	eafffd79 	b	2d60 <_vfprintf_r+0x18c>
    3778:	e58d3028 	str	r3, [sp, #40]	; 0x28
    377c:	e59d303c 	ldr	r3, [sp, #60]	; 0x3c
    3780:	e59db03c 	ldr	r11, [sp, #60]	; 0x3c
    3784:	e5933000 	ldr	r3, [r3]
    3788:	e3a07001 	mov	r7, #1
    378c:	e28bb004 	add	r11, r11, #4
    3790:	e5cd30b0 	strb	r3, [sp, #176]	; 0xb0
    3794:	e28dc0b0 	add	r12, sp, #176	; 0xb0
    3798:	e3a03000 	mov	r3, #0
    379c:	e58d7020 	str	r7, [sp, #32]
    37a0:	e58db03c 	str	r11, [sp, #60]	; 0x3c
    37a4:	e5cd3083 	strb	r3, [sp, #131]	; 0x83
    37a8:	e58d7038 	str	r7, [sp, #56]	; 0x38
    37ac:	e58dc04c 	str	r12, [sp, #76]	; 0x4c
    37b0:	eaffff9f 	b	3634 <_vfprintf_r+0xa60>
    37b4:	e59dc018 	ldr	r12, [sp, #24]
    37b8:	e58d3028 	str	r3, [sp, #40]	; 0x28
    37bc:	e59d303c 	ldr	r3, [sp, #60]	; 0x3c
    37c0:	e38cc002 	orr	r12, r12, #2
    37c4:	e5932000 	ldr	r2, [r3]
    37c8:	e58dc018 	str	r12, [sp, #24]
    37cc:	e3a07000 	mov	r7, #0
    37d0:	e59fc780 	ldr	r12, [pc, #1920]	; 3f58 <_vfprintf_r+0x1384>
    37d4:	e283b004 	add	r11, r3, #4
    37d8:	e3a08078 	mov	r8, #120	; 0x78
    37dc:	e3a03030 	mov	r3, #48	; 0x30
    37e0:	e1a06002 	mov	r6, r2
    37e4:	e0522007 	subs	r2, r2, r7
    37e8:	e5cd3084 	strb	r3, [sp, #132]	; 0x84
    37ec:	e58db03c 	str	r11, [sp, #60]	; 0x3c
    37f0:	e5cd8085 	strb	r8, [sp, #133]	; 0x85
    37f4:	13a02001 	movne	r2, #1
    37f8:	e58dc074 	str	r12, [sp, #116]	; 0x74
    37fc:	e3a03002 	mov	r3, #2
    3800:	eaffff08 	b	3428 <_vfprintf_r+0x854>
    3804:	e59d60ac 	ldr	r6, [sp, #172]	; 0xac
    3808:	e5dd3083 	ldrb	r3, [sp, #131]	; 0x83
    380c:	e3530000 	cmp	r3, #0
    3810:	0a00000c 	beq	3848 <_vfprintf_r+0xc74>
    3814:	e59d40a8 	ldr	r4, [sp, #168]	; 0xa8
    3818:	e28d3083 	add	r3, sp, #131	; 0x83
    381c:	e2844001 	add	r4, r4, #1
    3820:	e5853000 	str	r3, [r5]
    3824:	e2866001 	add	r6, r6, #1
    3828:	e3540007 	cmp	r4, #7
    382c:	e3a03001 	mov	r3, #1
    3830:	e5853004 	str	r3, [r5, #4]
    3834:	e28d7090 	add	r7, sp, #144	; 0x90
    3838:	e58d60ac 	str	r6, [sp, #172]	; 0xac
    383c:	e58d40a8 	str	r4, [sp, #168]	; 0xa8
    3840:	d2855008 	addle	r5, r5, #8
    3844:	ca000179 	bgt	3e30 <_vfprintf_r+0x125c>
    3848:	e59dc048 	ldr	r12, [sp, #72]	; 0x48
    384c:	e35c0000 	cmp	r12, #0
    3850:	0a00000b 	beq	3884 <_vfprintf_r+0xcb0>
    3854:	e59d40a8 	ldr	r4, [sp, #168]	; 0xa8
    3858:	e28d3084 	add	r3, sp, #132	; 0x84
    385c:	e2844001 	add	r4, r4, #1
    3860:	e5853000 	str	r3, [r5]
    3864:	e2866002 	add	r6, r6, #2
    3868:	e3540007 	cmp	r4, #7
    386c:	e3a03002 	mov	r3, #2
    3870:	e5853004 	str	r3, [r5, #4]
    3874:	e58d60ac 	str	r6, [sp, #172]	; 0xac
    3878:	e58d40a8 	str	r4, [sp, #168]	; 0xa8
    387c:	d2855008 	addle	r5, r5, #8
    3880:	ca000161 	bgt	3e0c <_vfprintf_r+0x1238>
    3884:	e59d4050 	ldr	r4, [sp, #80]	; 0x50
    3888:	e3540080 	cmp	r4, #128	; 0x80
    388c:	0a0000e3 	beq	3c20 <_vfprintf_r+0x104c>
    3890:	e59d4040 	ldr	r4, [sp, #64]	; 0x40
    3894:	e59d7038 	ldr	r7, [sp, #56]	; 0x38
    3898:	e0679004 	rsb	r9, r7, r4
    389c:	e3590000 	cmp	r9, #0
    38a0:	da000031 	ble	396c <_vfprintf_r+0xd98>
    38a4:	e3590010 	cmp	r9, #16
    38a8:	e59d40a8 	ldr	r4, [sp, #168]	; 0xa8
    38ac:	e59f76ac 	ldr	r7, [pc, #1708]	; 3f60 <_vfprintf_r+0x138c>
    38b0:	da00001d 	ble	392c <_vfprintf_r+0xd58>
    38b4:	e28da0a4 	add	r10, sp, #164	; 0xa4
    38b8:	e58d8040 	str	r8, [sp, #64]	; 0x40
    38bc:	e3a0b010 	mov	r11, #16
    38c0:	e1a0800a 	mov	r8, r10
    38c4:	e59da02c 	ldr	r10, [sp, #44]	; 0x2c
    38c8:	ea000002 	b	38d8 <_vfprintf_r+0xd04>
    38cc:	e2499010 	sub	r9, r9, #16
    38d0:	e3590010 	cmp	r9, #16
    38d4:	da000013 	ble	3928 <_vfprintf_r+0xd54>
    38d8:	e2844001 	add	r4, r4, #1
    38dc:	e3540007 	cmp	r4, #7
    38e0:	e2866010 	add	r6, r6, #16
    38e4:	e8850880 	stm	r5, {r7, r11}
    38e8:	e58d60ac 	str	r6, [sp, #172]	; 0xac
    38ec:	e58d40a8 	str	r4, [sp, #168]	; 0xa8
    38f0:	d2855008 	addle	r5, r5, #8
    38f4:	dafffff4 	ble	38cc <_vfprintf_r+0xcf8>
    38f8:	e1a0000a 	mov	r0, r10
    38fc:	e59d101c 	ldr	r1, [sp, #28]
    3900:	e1a02008 	mov	r2, r8
    3904:	eb00312c 	bl	fdbc <__sprint_r>
    3908:	e3500000 	cmp	r0, #0
    390c:	1afffd95 	bne	2f68 <_vfprintf_r+0x394>
    3910:	e2499010 	sub	r9, r9, #16
    3914:	e28d40a8 	add	r4, sp, #168	; 0xa8
    3918:	e3590010 	cmp	r9, #16
    391c:	e8940050 	ldm	r4, {r4, r6}
    3920:	e28d5d05 	add	r5, sp, #320	; 0x140
    3924:	caffffeb 	bgt	38d8 <_vfprintf_r+0xd04>
    3928:	e59d8040 	ldr	r8, [sp, #64]	; 0x40
    392c:	e2844001 	add	r4, r4, #1
    3930:	e0866009 	add	r6, r6, r9
    3934:	e3540007 	cmp	r4, #7
    3938:	e8850280 	stm	r5, {r7, r9}
    393c:	e58d60ac 	str	r6, [sp, #172]	; 0xac
    3940:	e58d40a8 	str	r4, [sp, #168]	; 0xa8
    3944:	d2855008 	addle	r5, r5, #8
    3948:	da000007 	ble	396c <_vfprintf_r+0xd98>
    394c:	e59d002c 	ldr	r0, [sp, #44]	; 0x2c
    3950:	e59d101c 	ldr	r1, [sp, #28]
    3954:	e28d20a4 	add	r2, sp, #164	; 0xa4
    3958:	eb003117 	bl	fdbc <__sprint_r>
    395c:	e3500000 	cmp	r0, #0
    3960:	1afffd80 	bne	2f68 <_vfprintf_r+0x394>
    3964:	e59d60ac 	ldr	r6, [sp, #172]	; 0xac
    3968:	e28d5d05 	add	r5, sp, #320	; 0x140
    396c:	e59d4018 	ldr	r4, [sp, #24]
    3970:	e3140c01 	tst	r4, #256	; 0x100
    3974:	1a000052 	bne	3ac4 <_vfprintf_r+0xef0>
    3978:	e59d40a8 	ldr	r4, [sp, #168]	; 0xa8
    397c:	e59d7038 	ldr	r7, [sp, #56]	; 0x38
    3980:	e2844001 	add	r4, r4, #1
    3984:	e59dc04c 	ldr	r12, [sp, #76]	; 0x4c
    3988:	e0866007 	add	r6, r6, r7
    398c:	e3540007 	cmp	r4, #7
    3990:	e585c000 	str	r12, [r5]
    3994:	e5857004 	str	r7, [r5, #4]
    3998:	e58d60ac 	str	r6, [sp, #172]	; 0xac
    399c:	e58d40a8 	str	r4, [sp, #168]	; 0xa8
    39a0:	ca00010c 	bgt	3dd8 <_vfprintf_r+0x1204>
    39a4:	e2855008 	add	r5, r5, #8
    39a8:	e59d4018 	ldr	r4, [sp, #24]
    39ac:	e3140004 	tst	r4, #4
    39b0:	0a000036 	beq	3a90 <_vfprintf_r+0xebc>
    39b4:	e59d7030 	ldr	r7, [sp, #48]	; 0x30
    39b8:	e59db020 	ldr	r11, [sp, #32]
    39bc:	e06b8007 	rsb	r8, r11, r7
    39c0:	e3580000 	cmp	r8, #0
    39c4:	da000031 	ble	3a90 <_vfprintf_r+0xebc>
    39c8:	e3580010 	cmp	r8, #16
    39cc:	e59d40a8 	ldr	r4, [sp, #168]	; 0xa8
    39d0:	e59f9570 	ldr	r9, [pc, #1392]	; 3f48 <_vfprintf_r+0x1374>
    39d4:	da00001e 	ble	3a54 <_vfprintf_r+0xe80>
    39d8:	e28d70a4 	add	r7, sp, #164	; 0xa4
    39dc:	e1a03007 	mov	r3, r7
    39e0:	e3a0a010 	mov	r10, #16
    39e4:	e1a07009 	mov	r7, r9
    39e8:	e59db02c 	ldr	r11, [sp, #44]	; 0x2c
    39ec:	e1a09003 	mov	r9, r3
    39f0:	ea000002 	b	3a00 <_vfprintf_r+0xe2c>
    39f4:	e2488010 	sub	r8, r8, #16
    39f8:	e3580010 	cmp	r8, #16
    39fc:	da000013 	ble	3a50 <_vfprintf_r+0xe7c>
    3a00:	e2844001 	add	r4, r4, #1
    3a04:	e3540007 	cmp	r4, #7
    3a08:	e2866010 	add	r6, r6, #16
    3a0c:	e8850480 	stm	r5, {r7, r10}
    3a10:	e58d60ac 	str	r6, [sp, #172]	; 0xac
    3a14:	e58d40a8 	str	r4, [sp, #168]	; 0xa8
    3a18:	d2855008 	addle	r5, r5, #8
    3a1c:	dafffff4 	ble	39f4 <_vfprintf_r+0xe20>
    3a20:	e1a0000b 	mov	r0, r11
    3a24:	e59d101c 	ldr	r1, [sp, #28]
    3a28:	e1a02009 	mov	r2, r9
    3a2c:	eb0030e2 	bl	fdbc <__sprint_r>
    3a30:	e3500000 	cmp	r0, #0
    3a34:	1afffd4b 	bne	2f68 <_vfprintf_r+0x394>
    3a38:	e2488010 	sub	r8, r8, #16
    3a3c:	e28d40a8 	add	r4, sp, #168	; 0xa8
    3a40:	e3580010 	cmp	r8, #16
    3a44:	e8940050 	ldm	r4, {r4, r6}
    3a48:	e28d5d05 	add	r5, sp, #320	; 0x140
    3a4c:	caffffeb 	bgt	3a00 <_vfprintf_r+0xe2c>
    3a50:	e1a09007 	mov	r9, r7
    3a54:	e2844001 	add	r4, r4, #1
    3a58:	e0886006 	add	r6, r8, r6
    3a5c:	e3540007 	cmp	r4, #7
    3a60:	e5859000 	str	r9, [r5]
    3a64:	e5858004 	str	r8, [r5, #4]
    3a68:	e58d60ac 	str	r6, [sp, #172]	; 0xac
    3a6c:	e58d40a8 	str	r4, [sp, #168]	; 0xa8
    3a70:	da000006 	ble	3a90 <_vfprintf_r+0xebc>
    3a74:	e59d002c 	ldr	r0, [sp, #44]	; 0x2c
    3a78:	e59d101c 	ldr	r1, [sp, #28]
    3a7c:	e28d20a4 	add	r2, sp, #164	; 0xa4
    3a80:	eb0030cd 	bl	fdbc <__sprint_r>
    3a84:	e3500000 	cmp	r0, #0
    3a88:	1afffd36 	bne	2f68 <_vfprintf_r+0x394>
    3a8c:	e59d60ac 	ldr	r6, [sp, #172]	; 0xac
    3a90:	e59d4034 	ldr	r4, [sp, #52]	; 0x34
    3a94:	e59d7020 	ldr	r7, [sp, #32]
    3a98:	e59db030 	ldr	r11, [sp, #48]	; 0x30
    3a9c:	e157000b 	cmp	r7, r11
    3aa0:	a0844007 	addge	r4, r4, r7
    3aa4:	b084400b 	addlt	r4, r4, r11
    3aa8:	e3560000 	cmp	r6, #0
    3aac:	e58d4034 	str	r4, [sp, #52]	; 0x34
    3ab0:	1afffd26 	bne	2f50 <_vfprintf_r+0x37c>
    3ab4:	e3a03000 	mov	r3, #0
    3ab8:	e58d30a8 	str	r3, [sp, #168]	; 0xa8
    3abc:	e28d5d05 	add	r5, sp, #320	; 0x140
    3ac0:	eafffc7b 	b	2cb4 <_vfprintf_r+0xe0>
    3ac4:	e3580065 	cmp	r8, #101	; 0x65
    3ac8:	da00008c 	ble	3d00 <_vfprintf_r+0x112c>
    3acc:	e28d1068 	add	r1, sp, #104	; 0x68
    3ad0:	e8910003 	ldm	r1, {r0, r1}
    3ad4:	e3a02000 	mov	r2, #0
    3ad8:	e3a03000 	mov	r3, #0
    3adc:	ebfffa09 	bl	2308 <__aeabi_dcmpeq>
    3ae0:	e3500000 	cmp	r0, #0
    3ae4:	0a0000db 	beq	3e58 <_vfprintf_r+0x1284>
    3ae8:	e59d40a8 	ldr	r4, [sp, #168]	; 0xa8
    3aec:	e59f3468 	ldr	r3, [pc, #1128]	; 3f5c <_vfprintf_r+0x1388>
    3af0:	e2844001 	add	r4, r4, #1
    3af4:	e5853000 	str	r3, [r5]
    3af8:	e2866001 	add	r6, r6, #1
    3afc:	e3540007 	cmp	r4, #7
    3b00:	e3a03001 	mov	r3, #1
    3b04:	e5853004 	str	r3, [r5, #4]
    3b08:	e58d60ac 	str	r6, [sp, #172]	; 0xac
    3b0c:	e58d40a8 	str	r4, [sp, #168]	; 0xa8
    3b10:	d2855008 	addle	r5, r5, #8
    3b14:	ca0002de 	bgt	4694 <_vfprintf_r+0x1ac0>
    3b18:	e59d3088 	ldr	r3, [sp, #136]	; 0x88
    3b1c:	e59d7044 	ldr	r7, [sp, #68]	; 0x44
    3b20:	e1530007 	cmp	r3, r7
    3b24:	ba000002 	blt	3b34 <_vfprintf_r+0xf60>
    3b28:	e59db018 	ldr	r11, [sp, #24]
    3b2c:	e31b0001 	tst	r11, #1
    3b30:	0affff9c 	beq	39a8 <_vfprintf_r+0xdd4>
    3b34:	e59d40a8 	ldr	r4, [sp, #168]	; 0xa8
    3b38:	e59dc064 	ldr	r12, [sp, #100]	; 0x64
    3b3c:	e2844001 	add	r4, r4, #1
    3b40:	e59d7058 	ldr	r7, [sp, #88]	; 0x58
    3b44:	e086600c 	add	r6, r6, r12
    3b48:	e3540007 	cmp	r4, #7
    3b4c:	e8851080 	stm	r5, {r7, r12}
    3b50:	e58d60ac 	str	r6, [sp, #172]	; 0xac
    3b54:	e58d40a8 	str	r4, [sp, #168]	; 0xa8
    3b58:	d2855008 	addle	r5, r5, #8
    3b5c:	ca000362 	bgt	48ec <_vfprintf_r+0x1d18>
    3b60:	e59dc044 	ldr	r12, [sp, #68]	; 0x44
    3b64:	e24ca001 	sub	r10, r12, #1
    3b68:	e35a0000 	cmp	r10, #0
    3b6c:	daffff8d 	ble	39a8 <_vfprintf_r+0xdd4>
    3b70:	e35a0010 	cmp	r10, #16
    3b74:	e59d40a8 	ldr	r4, [sp, #168]	; 0xa8
    3b78:	e59f73e0 	ldr	r7, [pc, #992]	; 3f60 <_vfprintf_r+0x138c>
    3b7c:	da00014c 	ble	40b4 <_vfprintf_r+0x14e0>
    3b80:	e28d80a4 	add	r8, sp, #164	; 0xa4
    3b84:	e1a03008 	mov	r3, r8
    3b88:	e3a09010 	mov	r9, #16
    3b8c:	e1a08007 	mov	r8, r7
    3b90:	e59db02c 	ldr	r11, [sp, #44]	; 0x2c
    3b94:	e1a07003 	mov	r7, r3
    3b98:	ea000002 	b	3ba8 <_vfprintf_r+0xfd4>
    3b9c:	e24aa010 	sub	r10, r10, #16
    3ba0:	e35a0010 	cmp	r10, #16
    3ba4:	da000141 	ble	40b0 <_vfprintf_r+0x14dc>
    3ba8:	e2844001 	add	r4, r4, #1
    3bac:	e3540007 	cmp	r4, #7
    3bb0:	e2866010 	add	r6, r6, #16
    3bb4:	e8850300 	stm	r5, {r8, r9}
    3bb8:	e58d60ac 	str	r6, [sp, #172]	; 0xac
    3bbc:	e58d40a8 	str	r4, [sp, #168]	; 0xa8
    3bc0:	d2855008 	addle	r5, r5, #8
    3bc4:	dafffff4 	ble	3b9c <_vfprintf_r+0xfc8>
    3bc8:	e1a0000b 	mov	r0, r11
    3bcc:	e59d101c 	ldr	r1, [sp, #28]
    3bd0:	e1a02007 	mov	r2, r7
    3bd4:	eb003078 	bl	fdbc <__sprint_r>
    3bd8:	e3500000 	cmp	r0, #0
    3bdc:	1afffce1 	bne	2f68 <_vfprintf_r+0x394>
    3be0:	e28d40a8 	add	r4, sp, #168	; 0xa8
    3be4:	e8940050 	ldm	r4, {r4, r6}
    3be8:	e28d5d05 	add	r5, sp, #320	; 0x140
    3bec:	eaffffea 	b	3b9c <_vfprintf_r+0xfc8>
    3bf0:	e3530000 	cmp	r3, #0
    3bf4:	1a000080 	bne	3dfc <_vfprintf_r+0x1228>
    3bf8:	e59d6018 	ldr	r6, [sp, #24]
    3bfc:	e3160001 	tst	r6, #1
    3c00:	0a0000f9 	beq	3fec <_vfprintf_r+0x1418>
    3c04:	e59d707c 	ldr	r7, [sp, #124]	; 0x7c
    3c08:	e59db05c 	ldr	r11, [sp, #92]	; 0x5c
    3c0c:	e3a03030 	mov	r3, #48	; 0x30
    3c10:	e5cd30d7 	strb	r3, [sp, #215]	; 0xd7
    3c14:	e58d7038 	str	r7, [sp, #56]	; 0x38
    3c18:	e58db04c 	str	r11, [sp, #76]	; 0x4c
    3c1c:	eafffd68 	b	31c4 <_vfprintf_r+0x5f0>
    3c20:	e59d7030 	ldr	r7, [sp, #48]	; 0x30
    3c24:	e59db020 	ldr	r11, [sp, #32]
    3c28:	e06b9007 	rsb	r9, r11, r7
    3c2c:	e3590000 	cmp	r9, #0
    3c30:	daffff16 	ble	3890 <_vfprintf_r+0xcbc>
    3c34:	e3590010 	cmp	r9, #16
    3c38:	e59d40a8 	ldr	r4, [sp, #168]	; 0xa8
    3c3c:	e59f731c 	ldr	r7, [pc, #796]	; 3f60 <_vfprintf_r+0x138c>
    3c40:	da00001d 	ble	3cbc <_vfprintf_r+0x10e8>
    3c44:	e28da0a4 	add	r10, sp, #164	; 0xa4
    3c48:	e58d8048 	str	r8, [sp, #72]	; 0x48
    3c4c:	e3a0b010 	mov	r11, #16
    3c50:	e1a0800a 	mov	r8, r10
    3c54:	e59da02c 	ldr	r10, [sp, #44]	; 0x2c
    3c58:	ea000002 	b	3c68 <_vfprintf_r+0x1094>
    3c5c:	e2499010 	sub	r9, r9, #16
    3c60:	e3590010 	cmp	r9, #16
    3c64:	da000013 	ble	3cb8 <_vfprintf_r+0x10e4>
    3c68:	e2844001 	add	r4, r4, #1
    3c6c:	e3540007 	cmp	r4, #7
    3c70:	e2866010 	add	r6, r6, #16
    3c74:	e8850880 	stm	r5, {r7, r11}
    3c78:	e58d60ac 	str	r6, [sp, #172]	; 0xac
    3c7c:	e58d40a8 	str	r4, [sp, #168]	; 0xa8
    3c80:	d2855008 	addle	r5, r5, #8
    3c84:	dafffff4 	ble	3c5c <_vfprintf_r+0x1088>
    3c88:	e1a0000a 	mov	r0, r10
    3c8c:	e59d101c 	ldr	r1, [sp, #28]
    3c90:	e1a02008 	mov	r2, r8
    3c94:	eb003048 	bl	fdbc <__sprint_r>
    3c98:	e3500000 	cmp	r0, #0
    3c9c:	1afffcb1 	bne	2f68 <_vfprintf_r+0x394>
    3ca0:	e2499010 	sub	r9, r9, #16
    3ca4:	e28d40a8 	add	r4, sp, #168	; 0xa8
    3ca8:	e3590010 	cmp	r9, #16
    3cac:	e8940050 	ldm	r4, {r4, r6}
    3cb0:	e28d5d05 	add	r5, sp, #320	; 0x140
    3cb4:	caffffeb 	bgt	3c68 <_vfprintf_r+0x1094>
    3cb8:	e59d8048 	ldr	r8, [sp, #72]	; 0x48
    3cbc:	e2844001 	add	r4, r4, #1
    3cc0:	e0866009 	add	r6, r6, r9
    3cc4:	e3540007 	cmp	r4, #7
    3cc8:	e8850280 	stm	r5, {r7, r9}
    3ccc:	e58d60ac 	str	r6, [sp, #172]	; 0xac
    3cd0:	e58d40a8 	str	r4, [sp, #168]	; 0xa8
    3cd4:	d2855008 	addle	r5, r5, #8
    3cd8:	dafffeec 	ble	3890 <_vfprintf_r+0xcbc>
    3cdc:	e59d002c 	ldr	r0, [sp, #44]	; 0x2c
    3ce0:	e59d101c 	ldr	r1, [sp, #28]
    3ce4:	e28d20a4 	add	r2, sp, #164	; 0xa4
    3ce8:	eb003033 	bl	fdbc <__sprint_r>
    3cec:	e3500000 	cmp	r0, #0
    3cf0:	1afffc9c 	bne	2f68 <_vfprintf_r+0x394>
    3cf4:	e59d60ac 	ldr	r6, [sp, #172]	; 0xac
    3cf8:	e28d5d05 	add	r5, sp, #320	; 0x140
    3cfc:	eafffee3 	b	3890 <_vfprintf_r+0xcbc>
    3d00:	e59d4044 	ldr	r4, [sp, #68]	; 0x44
    3d04:	e3540001 	cmp	r4, #1
    3d08:	e59d40a8 	ldr	r4, [sp, #168]	; 0xa8
    3d0c:	e2866001 	add	r6, r6, #1
    3d10:	e2844001 	add	r4, r4, #1
    3d14:	da000156 	ble	4274 <_vfprintf_r+0x16a0>
    3d18:	e59dc04c 	ldr	r12, [sp, #76]	; 0x4c
    3d1c:	e3540007 	cmp	r4, #7
    3d20:	e3a03001 	mov	r3, #1
    3d24:	e585c000 	str	r12, [r5]
    3d28:	e5853004 	str	r3, [r5, #4]
    3d2c:	e58d60ac 	str	r6, [sp, #172]	; 0xac
    3d30:	e58d40a8 	str	r4, [sp, #168]	; 0xa8
    3d34:	d2855008 	addle	r5, r5, #8
    3d38:	ca000160 	bgt	42c0 <_vfprintf_r+0x16ec>
    3d3c:	e59d7064 	ldr	r7, [sp, #100]	; 0x64
    3d40:	e2844001 	add	r4, r4, #1
    3d44:	e59db058 	ldr	r11, [sp, #88]	; 0x58
    3d48:	e0866007 	add	r6, r6, r7
    3d4c:	e3540007 	cmp	r4, #7
    3d50:	e585b000 	str	r11, [r5]
    3d54:	e5857004 	str	r7, [r5, #4]
    3d58:	e58d60ac 	str	r6, [sp, #172]	; 0xac
    3d5c:	e58d40a8 	str	r4, [sp, #168]	; 0xa8
    3d60:	d2855008 	addle	r5, r5, #8
    3d64:	ca00015f 	bgt	42e8 <_vfprintf_r+0x1714>
    3d68:	e28d1068 	add	r1, sp, #104	; 0x68
    3d6c:	e8910003 	ldm	r1, {r0, r1}
    3d70:	e3a02000 	mov	r2, #0
    3d74:	e3a03000 	mov	r3, #0
    3d78:	ebfff962 	bl	2308 <__aeabi_dcmpeq>
    3d7c:	e3500000 	cmp	r0, #0
    3d80:	e59d7044 	ldr	r7, [sp, #68]	; 0x44
    3d84:	1a00009c 	bne	3ffc <_vfprintf_r+0x1428>
    3d88:	e59dc04c 	ldr	r12, [sp, #76]	; 0x4c
    3d8c:	e2473001 	sub	r3, r7, #1
    3d90:	e2844001 	add	r4, r4, #1
    3d94:	e28c2001 	add	r2, r12, #1
    3d98:	e0866003 	add	r6, r6, r3
    3d9c:	e3540007 	cmp	r4, #7
    3da0:	e885000c 	stm	r5, {r2, r3}
    3da4:	e58d60ac 	str	r6, [sp, #172]	; 0xac
    3da8:	e58d40a8 	str	r4, [sp, #168]	; 0xa8
    3dac:	ca00015f 	bgt	4330 <_vfprintf_r+0x175c>
    3db0:	e2855008 	add	r5, r5, #8
    3db4:	e59dc070 	ldr	r12, [sp, #112]	; 0x70
    3db8:	e2844001 	add	r4, r4, #1
    3dbc:	e086600c 	add	r6, r6, r12
    3dc0:	e28d3094 	add	r3, sp, #148	; 0x94
    3dc4:	e3540007 	cmp	r4, #7
    3dc8:	e8851008 	stm	r5, {r3, r12}
    3dcc:	e58d60ac 	str	r6, [sp, #172]	; 0xac
    3dd0:	e58d40a8 	str	r4, [sp, #168]	; 0xa8
    3dd4:	dafffef2 	ble	39a4 <_vfprintf_r+0xdd0>
    3dd8:	e59d002c 	ldr	r0, [sp, #44]	; 0x2c
    3ddc:	e59d101c 	ldr	r1, [sp, #28]
    3de0:	e28d20a4 	add	r2, sp, #164	; 0xa4
    3de4:	eb002ff4 	bl	fdbc <__sprint_r>
    3de8:	e3500000 	cmp	r0, #0
    3dec:	1afffc5d 	bne	2f68 <_vfprintf_r+0x394>
    3df0:	e28d5d05 	add	r5, sp, #320	; 0x140
    3df4:	e59d60ac 	ldr	r6, [sp, #172]	; 0xac
    3df8:	eafffeea 	b	39a8 <_vfprintf_r+0xdd4>
    3dfc:	e59dc054 	ldr	r12, [sp, #84]	; 0x54
    3e00:	e58d2038 	str	r2, [sp, #56]	; 0x38
    3e04:	e58dc04c 	str	r12, [sp, #76]	; 0x4c
    3e08:	eafffced 	b	31c4 <_vfprintf_r+0x5f0>
    3e0c:	e59d002c 	ldr	r0, [sp, #44]	; 0x2c
    3e10:	e59d101c 	ldr	r1, [sp, #28]
    3e14:	e28d20a4 	add	r2, sp, #164	; 0xa4
    3e18:	eb002fe7 	bl	fdbc <__sprint_r>
    3e1c:	e3500000 	cmp	r0, #0
    3e20:	1afffc50 	bne	2f68 <_vfprintf_r+0x394>
    3e24:	e59d60ac 	ldr	r6, [sp, #172]	; 0xac
    3e28:	e28d5d05 	add	r5, sp, #320	; 0x140
    3e2c:	eafffe94 	b	3884 <_vfprintf_r+0xcb0>
    3e30:	e59d002c 	ldr	r0, [sp, #44]	; 0x2c
    3e34:	e59d101c 	ldr	r1, [sp, #28]
    3e38:	e28d20a4 	add	r2, sp, #164	; 0xa4
    3e3c:	eb002fde 	bl	fdbc <__sprint_r>
    3e40:	e3500000 	cmp	r0, #0
    3e44:	e28db0b0 	add	r11, sp, #176	; 0xb0
    3e48:	1afffc46 	bne	2f68 <_vfprintf_r+0x394>
    3e4c:	e59d60ac 	ldr	r6, [sp, #172]	; 0xac
    3e50:	e28d5d05 	add	r5, sp, #320	; 0x140
    3e54:	eafffe7b 	b	3848 <_vfprintf_r+0xc74>
    3e58:	e59d8088 	ldr	r8, [sp, #136]	; 0x88
    3e5c:	e3580000 	cmp	r8, #0
    3e60:	da000215 	ble	46bc <_vfprintf_r+0x1ae8>
    3e64:	e59d4060 	ldr	r4, [sp, #96]	; 0x60
    3e68:	e59d7044 	ldr	r7, [sp, #68]	; 0x44
    3e6c:	e59dc04c 	ldr	r12, [sp, #76]	; 0x4c
    3e70:	e1570004 	cmp	r7, r4
    3e74:	a1a07004 	movge	r7, r4
    3e78:	e59d4044 	ldr	r4, [sp, #68]	; 0x44
    3e7c:	e3570000 	cmp	r7, #0
    3e80:	e08cb004 	add	r11, r12, r4
    3e84:	da000009 	ble	3eb0 <_vfprintf_r+0x12dc>
    3e88:	e59d40a8 	ldr	r4, [sp, #168]	; 0xa8
    3e8c:	e2844001 	add	r4, r4, #1
    3e90:	e0866007 	add	r6, r6, r7
    3e94:	e3540007 	cmp	r4, #7
    3e98:	e585c000 	str	r12, [r5]
    3e9c:	e5857004 	str	r7, [r5, #4]
    3ea0:	e58d60ac 	str	r6, [sp, #172]	; 0xac
    3ea4:	e58d40a8 	str	r4, [sp, #168]	; 0xa8
    3ea8:	d2855008 	addle	r5, r5, #8
    3eac:	ca0002b5 	bgt	4988 <_vfprintf_r+0x1db4>
    3eb0:	e59dc060 	ldr	r12, [sp, #96]	; 0x60
    3eb4:	e1c77fc7 	bic	r7, r7, r7, asr #31
    3eb8:	e067a00c 	rsb	r10, r7, r12
    3ebc:	e35a0000 	cmp	r10, #0
    3ec0:	da000095 	ble	411c <_vfprintf_r+0x1548>
    3ec4:	e35a0010 	cmp	r10, #16
    3ec8:	e59d40a8 	ldr	r4, [sp, #168]	; 0xa8
    3ecc:	e59f708c 	ldr	r7, [pc, #140]	; 3f60 <_vfprintf_r+0x138c>
    3ed0:	da000081 	ble	40dc <_vfprintf_r+0x1508>
    3ed4:	e28d80a4 	add	r8, sp, #164	; 0xa4
    3ed8:	e58db038 	str	r11, [sp, #56]	; 0x38
    3edc:	e3a09010 	mov	r9, #16
    3ee0:	e1a0b00a 	mov	r11, r10
    3ee4:	e1a0a008 	mov	r10, r8
    3ee8:	e59d802c 	ldr	r8, [sp, #44]	; 0x2c
    3eec:	ea000002 	b	3efc <_vfprintf_r+0x1328>
    3ef0:	e24bb010 	sub	r11, r11, #16
    3ef4:	e35b0010 	cmp	r11, #16
    3ef8:	da000075 	ble	40d4 <_vfprintf_r+0x1500>
    3efc:	e2844001 	add	r4, r4, #1
    3f00:	e3540007 	cmp	r4, #7
    3f04:	e2866010 	add	r6, r6, #16
    3f08:	e8850280 	stm	r5, {r7, r9}
    3f0c:	e58d60ac 	str	r6, [sp, #172]	; 0xac
    3f10:	e58d40a8 	str	r4, [sp, #168]	; 0xa8
    3f14:	d2855008 	addle	r5, r5, #8
    3f18:	dafffff4 	ble	3ef0 <_vfprintf_r+0x131c>
    3f1c:	e1a00008 	mov	r0, r8
    3f20:	e59d101c 	ldr	r1, [sp, #28]
    3f24:	e1a0200a 	mov	r2, r10
    3f28:	eb002fa3 	bl	fdbc <__sprint_r>
    3f2c:	e3500000 	cmp	r0, #0
    3f30:	1afffc0c 	bne	2f68 <_vfprintf_r+0x394>
    3f34:	e28d40a8 	add	r4, sp, #168	; 0xa8
    3f38:	e8940050 	ldm	r4, {r4, r6}
    3f3c:	e28d5d05 	add	r5, sp, #320	; 0x140
    3f40:	eaffffea 	b	3ef0 <_vfprintf_r+0x131c>
    3f44:	fffffba4 	.word	0xfffffba4
    3f48:	00014f18 	.word	0x00014f18
    3f4c:	00014f38 	.word	0x00014f38
    3f50:	00014f3c 	.word	0x00014f3c
    3f54:	00014f48 	.word	0x00014f48
    3f58:	00014f5c 	.word	0x00014f5c
    3f5c:	00014f78 	.word	0x00014f78
    3f60:	00014f28 	.word	0x00014f28
    3f64:	00014f40 	.word	0x00014f40
    3f68:	00014f44 	.word	0x00014f44
    3f6c:	00014f70 	.word	0x00014f70
    3f70:	66666667 	.word	0x66666667
    3f74:	e59d9074 	ldr	r9, [sp, #116]	; 0x74
    3f78:	e3a0000f 	mov	r0, #15
    3f7c:	e1a0a226 	lsr	r10, r6, #4
    3f80:	e0062000 	and	r2, r6, r0
    3f84:	e18aae07 	orr	r10, r10, r7, lsl #28
    3f88:	e1a03227 	lsr	r3, r7, #4
    3f8c:	e0892002 	add	r2, r9, r2
    3f90:	e1a07003 	mov	r7, r3
    3f94:	e1a0600a 	mov	r6, r10
    3f98:	e5d22000 	ldrb	r2, [r2]
    3f9c:	e196b007 	orrs	r11, r6, r7
    3fa0:	e1a0300c 	mov	r3, r12
    3fa4:	e5cc2000 	strb	r2, [r12]
    3fa8:	e24cc001 	sub	r12, r12, #1
    3fac:	1afffff2 	bne	3f7c <_vfprintf_r+0x13a8>
    3fb0:	e59dc054 	ldr	r12, [sp, #84]	; 0x54
    3fb4:	e063c00c 	rsb	r12, r3, r12
    3fb8:	e58d304c 	str	r3, [sp, #76]	; 0x4c
    3fbc:	e58dc038 	str	r12, [sp, #56]	; 0x38
    3fc0:	eafffc7f 	b	31c4 <_vfprintf_r+0x5f0>
    3fc4:	e3570000 	cmp	r7, #0
    3fc8:	03560009 	cmpeq	r6, #9
    3fcc:	8a0000e1 	bhi	4358 <_vfprintf_r+0x1784>
    3fd0:	e2866030 	add	r6, r6, #48	; 0x30
    3fd4:	e5cd60d7 	strb	r6, [sp, #215]	; 0xd7
    3fd8:	e59d705c 	ldr	r7, [sp, #92]	; 0x5c
    3fdc:	e59d607c 	ldr	r6, [sp, #124]	; 0x7c
    3fe0:	e58d704c 	str	r7, [sp, #76]	; 0x4c
    3fe4:	e58d6038 	str	r6, [sp, #56]	; 0x38
    3fe8:	eafffc75 	b	31c4 <_vfprintf_r+0x5f0>
    3fec:	e59d6054 	ldr	r6, [sp, #84]	; 0x54
    3ff0:	e58d3038 	str	r3, [sp, #56]	; 0x38
    3ff4:	e58d604c 	str	r6, [sp, #76]	; 0x4c
    3ff8:	eafffc71 	b	31c4 <_vfprintf_r+0x5f0>
    3ffc:	e247a001 	sub	r10, r7, #1
    4000:	e35a0000 	cmp	r10, #0
    4004:	daffff6a 	ble	3db4 <_vfprintf_r+0x11e0>
    4008:	e35a0010 	cmp	r10, #16
    400c:	e51f70b4 	ldr	r7, [pc, #-180]	; 3f60 <_vfprintf_r+0x138c>
    4010:	da0000bf 	ble	4314 <_vfprintf_r+0x1740>
    4014:	e28d80a4 	add	r8, sp, #164	; 0xa4
    4018:	e1a03008 	mov	r3, r8
    401c:	e3a09010 	mov	r9, #16
    4020:	e1a08007 	mov	r8, r7
    4024:	e59db02c 	ldr	r11, [sp, #44]	; 0x2c
    4028:	e1a07003 	mov	r7, r3
    402c:	ea000002 	b	403c <_vfprintf_r+0x1468>
    4030:	e24aa010 	sub	r10, r10, #16
    4034:	e35a0010 	cmp	r10, #16
    4038:	da0000b4 	ble	4310 <_vfprintf_r+0x173c>
    403c:	e2844001 	add	r4, r4, #1
    4040:	e3540007 	cmp	r4, #7
    4044:	e2866010 	add	r6, r6, #16
    4048:	e8850300 	stm	r5, {r8, r9}
    404c:	e58d60ac 	str	r6, [sp, #172]	; 0xac
    4050:	e58d40a8 	str	r4, [sp, #168]	; 0xa8
    4054:	d2855008 	addle	r5, r5, #8
    4058:	dafffff4 	ble	4030 <_vfprintf_r+0x145c>
    405c:	e1a0000b 	mov	r0, r11
    4060:	e59d101c 	ldr	r1, [sp, #28]
    4064:	e1a02007 	mov	r2, r7
    4068:	eb002f53 	bl	fdbc <__sprint_r>
    406c:	e3500000 	cmp	r0, #0
    4070:	1afffbbc 	bne	2f68 <_vfprintf_r+0x394>
    4074:	e28d40a8 	add	r4, sp, #168	; 0xa8
    4078:	e8940050 	ldm	r4, {r4, r6}
    407c:	e28d5d05 	add	r5, sp, #320	; 0x140
    4080:	eaffffea 	b	4030 <_vfprintf_r+0x145c>
    4084:	e1960007 	orrs	r0, r6, r7
    4088:	159db018 	ldrne	r11, [sp, #24]
    408c:	13a03030 	movne	r3, #48	; 0x30
    4090:	138bb002 	orrne	r11, r11, #2
    4094:	15cd3084 	strbne	r3, [sp, #132]	; 0x84
    4098:	15cd8085 	strbne	r8, [sp, #133]	; 0x85
    409c:	158db018 	strne	r11, [sp, #24]
    40a0:	13a02001 	movne	r2, #1
    40a4:	03a02000 	moveq	r2, #0
    40a8:	e3a03002 	mov	r3, #2
    40ac:	eafffcdd 	b	3428 <_vfprintf_r+0x854>
    40b0:	e1a07008 	mov	r7, r8
    40b4:	e2844001 	add	r4, r4, #1
    40b8:	e086600a 	add	r6, r6, r10
    40bc:	e3540007 	cmp	r4, #7
    40c0:	e8850480 	stm	r5, {r7, r10}
    40c4:	e58d60ac 	str	r6, [sp, #172]	; 0xac
    40c8:	e58d40a8 	str	r4, [sp, #168]	; 0xa8
    40cc:	dafffe34 	ble	39a4 <_vfprintf_r+0xdd0>
    40d0:	eaffff40 	b	3dd8 <_vfprintf_r+0x1204>
    40d4:	e1a0a00b 	mov	r10, r11
    40d8:	e59db038 	ldr	r11, [sp, #56]	; 0x38
    40dc:	e2844001 	add	r4, r4, #1
    40e0:	e086600a 	add	r6, r6, r10
    40e4:	e3540007 	cmp	r4, #7
    40e8:	e8850480 	stm	r5, {r7, r10}
    40ec:	e58d60ac 	str	r6, [sp, #172]	; 0xac
    40f0:	e58d40a8 	str	r4, [sp, #168]	; 0xa8
    40f4:	d2855008 	addle	r5, r5, #8
    40f8:	da000007 	ble	411c <_vfprintf_r+0x1548>
    40fc:	e59d002c 	ldr	r0, [sp, #44]	; 0x2c
    4100:	e59d101c 	ldr	r1, [sp, #28]
    4104:	e28d20a4 	add	r2, sp, #164	; 0xa4
    4108:	eb002f2b 	bl	fdbc <__sprint_r>
    410c:	e3500000 	cmp	r0, #0
    4110:	1afffb94 	bne	2f68 <_vfprintf_r+0x394>
    4114:	e59d60ac 	ldr	r6, [sp, #172]	; 0xac
    4118:	e28d5d05 	add	r5, sp, #320	; 0x140
    411c:	e59d3088 	ldr	r3, [sp, #136]	; 0x88
    4120:	e59d4044 	ldr	r4, [sp, #68]	; 0x44
    4124:	e59d704c 	ldr	r7, [sp, #76]	; 0x4c
    4128:	e59dc060 	ldr	r12, [sp, #96]	; 0x60
    412c:	e1530004 	cmp	r3, r4
    4130:	e087800c 	add	r8, r7, r12
    4134:	ba000038 	blt	421c <_vfprintf_r+0x1648>
    4138:	e59d4018 	ldr	r4, [sp, #24]
    413c:	e3140001 	tst	r4, #1
    4140:	1a000035 	bne	421c <_vfprintf_r+0x1648>
    4144:	e59d4044 	ldr	r4, [sp, #68]	; 0x44
    4148:	e068700b 	rsb	r7, r8, r11
    414c:	e0633004 	rsb	r3, r3, r4
    4150:	e1530007 	cmp	r3, r7
    4154:	b1a07003 	movlt	r7, r3
    4158:	a1a07007 	movge	r7, r7
    415c:	e3570000 	cmp	r7, #0
    4160:	da000009 	ble	418c <_vfprintf_r+0x15b8>
    4164:	e59d40a8 	ldr	r4, [sp, #168]	; 0xa8
    4168:	e2844001 	add	r4, r4, #1
    416c:	e0866007 	add	r6, r6, r7
    4170:	e3540007 	cmp	r4, #7
    4174:	e5858000 	str	r8, [r5]
    4178:	e5857004 	str	r7, [r5, #4]
    417c:	e58d60ac 	str	r6, [sp, #172]	; 0xac
    4180:	e58d40a8 	str	r4, [sp, #168]	; 0xa8
    4184:	d2855008 	addle	r5, r5, #8
    4188:	ca000208 	bgt	49b0 <_vfprintf_r+0x1ddc>
    418c:	e1c77fc7 	bic	r7, r7, r7, asr #31
    4190:	e067a003 	rsb	r10, r7, r3
    4194:	e35a0000 	cmp	r10, #0
    4198:	dafffe02 	ble	39a8 <_vfprintf_r+0xdd4>
    419c:	e35a0010 	cmp	r10, #16
    41a0:	e59d40a8 	ldr	r4, [sp, #168]	; 0xa8
    41a4:	e51f724c 	ldr	r7, [pc, #-588]	; 3f60 <_vfprintf_r+0x138c>
    41a8:	daffffc1 	ble	40b4 <_vfprintf_r+0x14e0>
    41ac:	e28d80a4 	add	r8, sp, #164	; 0xa4
    41b0:	e1a03008 	mov	r3, r8
    41b4:	e3a09010 	mov	r9, #16
    41b8:	e1a08007 	mov	r8, r7
    41bc:	e59db02c 	ldr	r11, [sp, #44]	; 0x2c
    41c0:	e1a07003 	mov	r7, r3
    41c4:	ea000002 	b	41d4 <_vfprintf_r+0x1600>
    41c8:	e24aa010 	sub	r10, r10, #16
    41cc:	e35a0010 	cmp	r10, #16
    41d0:	daffffb6 	ble	40b0 <_vfprintf_r+0x14dc>
    41d4:	e2844001 	add	r4, r4, #1
    41d8:	e3540007 	cmp	r4, #7
    41dc:	e2866010 	add	r6, r6, #16
    41e0:	e8850300 	stm	r5, {r8, r9}
    41e4:	e58d60ac 	str	r6, [sp, #172]	; 0xac
    41e8:	e58d40a8 	str	r4, [sp, #168]	; 0xa8
    41ec:	d2855008 	addle	r5, r5, #8
    41f0:	dafffff4 	ble	41c8 <_vfprintf_r+0x15f4>
    41f4:	e1a0000b 	mov	r0, r11
    41f8:	e59d101c 	ldr	r1, [sp, #28]
    41fc:	e1a02007 	mov	r2, r7
    4200:	eb002eed 	bl	fdbc <__sprint_r>
    4204:	e3500000 	cmp	r0, #0
    4208:	1afffb56 	bne	2f68 <_vfprintf_r+0x394>
    420c:	e28d40a8 	add	r4, sp, #168	; 0xa8
    4210:	e8940050 	ldm	r4, {r4, r6}
    4214:	e28d5d05 	add	r5, sp, #320	; 0x140
    4218:	eaffffea 	b	41c8 <_vfprintf_r+0x15f4>
    421c:	e59d40a8 	ldr	r4, [sp, #168]	; 0xa8
    4220:	e59d7064 	ldr	r7, [sp, #100]	; 0x64
    4224:	e2844001 	add	r4, r4, #1
    4228:	e59dc058 	ldr	r12, [sp, #88]	; 0x58
    422c:	e0866007 	add	r6, r6, r7
    4230:	e3540007 	cmp	r4, #7
    4234:	e585c000 	str	r12, [r5]
    4238:	e5857004 	str	r7, [r5, #4]
    423c:	e58d60ac 	str	r6, [sp, #172]	; 0xac
    4240:	e58d40a8 	str	r4, [sp, #168]	; 0xa8
    4244:	d2855008 	addle	r5, r5, #8
    4248:	daffffbd 	ble	4144 <_vfprintf_r+0x1570>
    424c:	e59d002c 	ldr	r0, [sp, #44]	; 0x2c
    4250:	e59d101c 	ldr	r1, [sp, #28]
    4254:	e28d20a4 	add	r2, sp, #164	; 0xa4
    4258:	eb002ed7 	bl	fdbc <__sprint_r>
    425c:	e3500000 	cmp	r0, #0
    4260:	1afffb40 	bne	2f68 <_vfprintf_r+0x394>
    4264:	e59d3088 	ldr	r3, [sp, #136]	; 0x88
    4268:	e59d60ac 	ldr	r6, [sp, #172]	; 0xac
    426c:	e28d5d05 	add	r5, sp, #320	; 0x140
    4270:	eaffffb3 	b	4144 <_vfprintf_r+0x1570>
    4274:	e59d7018 	ldr	r7, [sp, #24]
    4278:	e3170001 	tst	r7, #1
    427c:	1afffea5 	bne	3d18 <_vfprintf_r+0x1144>
    4280:	e59d704c 	ldr	r7, [sp, #76]	; 0x4c
    4284:	e3a03001 	mov	r3, #1
    4288:	e3540007 	cmp	r4, #7
    428c:	e5857000 	str	r7, [r5]
    4290:	e5853004 	str	r3, [r5, #4]
    4294:	e58d60ac 	str	r6, [sp, #172]	; 0xac
    4298:	e58d40a8 	str	r4, [sp, #168]	; 0xa8
    429c:	dafffec3 	ble	3db0 <_vfprintf_r+0x11dc>
    42a0:	e59d002c 	ldr	r0, [sp, #44]	; 0x2c
    42a4:	e59d101c 	ldr	r1, [sp, #28]
    42a8:	e28d20a4 	add	r2, sp, #164	; 0xa4
    42ac:	eb002ec2 	bl	fdbc <__sprint_r>
    42b0:	e3500000 	cmp	r0, #0
    42b4:	e28db0b0 	add	r11, sp, #176	; 0xb0
    42b8:	0a000022 	beq	4348 <_vfprintf_r+0x1774>
    42bc:	eafffb29 	b	2f68 <_vfprintf_r+0x394>
    42c0:	e59d002c 	ldr	r0, [sp, #44]	; 0x2c
    42c4:	e59d101c 	ldr	r1, [sp, #28]
    42c8:	e28d20a4 	add	r2, sp, #164	; 0xa4
    42cc:	eb002eba 	bl	fdbc <__sprint_r>
    42d0:	e3500000 	cmp	r0, #0
    42d4:	1afffb23 	bne	2f68 <_vfprintf_r+0x394>
    42d8:	e28d40a8 	add	r4, sp, #168	; 0xa8
    42dc:	e8940050 	ldm	r4, {r4, r6}
    42e0:	e28d5d05 	add	r5, sp, #320	; 0x140
    42e4:	eafffe94 	b	3d3c <_vfprintf_r+0x1168>
    42e8:	e59d002c 	ldr	r0, [sp, #44]	; 0x2c
    42ec:	e59d101c 	ldr	r1, [sp, #28]
    42f0:	e28d20a4 	add	r2, sp, #164	; 0xa4
    42f4:	eb002eb0 	bl	fdbc <__sprint_r>
    42f8:	e3500000 	cmp	r0, #0
    42fc:	1afffb19 	bne	2f68 <_vfprintf_r+0x394>
    4300:	e28d40a8 	add	r4, sp, #168	; 0xa8
    4304:	e8940050 	ldm	r4, {r4, r6}
    4308:	e28d5d05 	add	r5, sp, #320	; 0x140
    430c:	eafffe95 	b	3d68 <_vfprintf_r+0x1194>
    4310:	e1a07008 	mov	r7, r8
    4314:	e2844001 	add	r4, r4, #1
    4318:	e086600a 	add	r6, r6, r10
    431c:	e3540007 	cmp	r4, #7
    4320:	e8850480 	stm	r5, {r7, r10}
    4324:	e58d60ac 	str	r6, [sp, #172]	; 0xac
    4328:	e58d40a8 	str	r4, [sp, #168]	; 0xa8
    432c:	dafffe9f 	ble	3db0 <_vfprintf_r+0x11dc>
    4330:	e59d002c 	ldr	r0, [sp, #44]	; 0x2c
    4334:	e59d101c 	ldr	r1, [sp, #28]
    4338:	e28d20a4 	add	r2, sp, #164	; 0xa4
    433c:	eb002e9e 	bl	fdbc <__sprint_r>
    4340:	e3500000 	cmp	r0, #0
    4344:	1afffb07 	bne	2f68 <_vfprintf_r+0x394>
    4348:	e28d40a8 	add	r4, sp, #168	; 0xa8
    434c:	e28d5d05 	add	r5, sp, #320	; 0x140
    4350:	e8940050 	ldm	r4, {r4, r6}
    4354:	eafffe96 	b	3db4 <_vfprintf_r+0x11e0>
    4358:	e59da05c 	ldr	r10, [sp, #92]	; 0x5c
    435c:	e1a00006 	mov	r0, r6
    4360:	e1a01007 	mov	r1, r7
    4364:	e3a0200a 	mov	r2, #10
    4368:	e3a03000 	mov	r3, #0
    436c:	eb003e57 	bl	13cd0 <__aeabi_uldivmod>
    4370:	e2822030 	add	r2, r2, #48	; 0x30
    4374:	e5ca2000 	strb	r2, [r10]
    4378:	e1a00006 	mov	r0, r6
    437c:	e1a01007 	mov	r1, r7
    4380:	e3a0200a 	mov	r2, #10
    4384:	e3a03000 	mov	r3, #0
    4388:	eb003e50 	bl	13cd0 <__aeabi_uldivmod>
    438c:	e1a06000 	mov	r6, r0
    4390:	e1a07001 	mov	r7, r1
    4394:	e196b007 	orrs	r11, r6, r7
    4398:	e1a0900a 	mov	r9, r10
    439c:	e24aa001 	sub	r10, r10, #1
    43a0:	1affffed 	bne	435c <_vfprintf_r+0x1788>
    43a4:	e59dc054 	ldr	r12, [sp, #84]	; 0x54
    43a8:	e069c00c 	rsb	r12, r9, r12
    43ac:	e58d904c 	str	r9, [sp, #76]	; 0x4c
    43b0:	e58dc038 	str	r12, [sp, #56]	; 0x38
    43b4:	eafffb82 	b	31c4 <_vfprintf_r+0x5f0>
    43b8:	e3520030 	cmp	r2, #48	; 0x30
    43bc:	13a02030 	movne	r2, #48	; 0x30
    43c0:	059db054 	ldreq	r11, [sp, #84]	; 0x54
    43c4:	15432001 	strbne	r2, [r3, #-1]
    43c8:	059dc04c 	ldreq	r12, [sp, #76]	; 0x4c
    43cc:	159d3054 	ldrne	r3, [sp, #84]	; 0x54
    43d0:	006cb00b 	rsbeq	r11, r12, r11
    43d4:	106c3003 	rsbne	r3, r12, r3
    43d8:	058db038 	streq	r11, [sp, #56]	; 0x38
    43dc:	158dc04c 	strne	r12, [sp, #76]	; 0x4c
    43e0:	158d3038 	strne	r3, [sp, #56]	; 0x38
    43e4:	eafffb76 	b	31c4 <_vfprintf_r+0x5f0>
    43e8:	e2766000 	rsbs	r6, r6, #0
    43ec:	e2e77000 	rsc	r7, r7, #0
    43f0:	e3a0302d 	mov	r3, #45	; 0x2d
    43f4:	e1962007 	orrs	r2, r6, r7
    43f8:	e5cd3083 	strb	r3, [sp, #131]	; 0x83
    43fc:	03a02000 	moveq	r2, #0
    4400:	13a02001 	movne	r2, #1
    4404:	e3a03001 	mov	r3, #1
    4408:	eafffb4b 	b	313c <_vfprintf_r+0x568>
    440c:	e5d38000 	ldrb	r8, [r3]
    4410:	eafffa52 	b	2d60 <_vfprintf_r+0x18c>
    4414:	eb001c8f 	bl	b658 <__fpclassifyd>
    4418:	e3500000 	cmp	r0, #0
    441c:	0a000111 	beq	4868 <_vfprintf_r+0x1c94>
    4420:	e3740001 	cmn	r4, #1
    4424:	e3c89020 	bic	r9, r8, #32
    4428:	03a04006 	moveq	r4, #6
    442c:	0a000003 	beq	4440 <_vfprintf_r+0x186c>
    4430:	e3590047 	cmp	r9, #71	; 0x47
    4434:	1a000001 	bne	4440 <_vfprintf_r+0x186c>
    4438:	e3540000 	cmp	r4, #0
    443c:	03a04001 	moveq	r4, #1
    4440:	e59d6018 	ldr	r6, [sp, #24]
    4444:	e3570000 	cmp	r7, #0
    4448:	e3866c01 	orr	r6, r6, #256	; 0x100
    444c:	b2877102 	addlt	r7, r7, #-2147483648	; 0x80000000
    4450:	b3a0b02d 	movlt	r11, #45	; 0x2d
    4454:	a3a0b000 	movge	r11, #0
    4458:	e2593046 	subs	r3, r9, #70	; 0x46
    445c:	e58d6040 	str	r6, [sp, #64]	; 0x40
    4460:	e2736000 	rsbs	r6, r3, #0
    4464:	e0b66003 	adcs	r6, r6, r3
    4468:	e3560000 	cmp	r6, #0
    446c:	1a00016a 	bne	4a1c <_vfprintf_r+0x1e48>
    4470:	e3590045 	cmp	r9, #69	; 0x45
    4474:	1a0001c4 	bne	4b8c <_vfprintf_r+0x1fb8>
    4478:	e28d3090 	add	r3, sp, #144	; 0x90
    447c:	e58da020 	str	r10, [sp, #32]
    4480:	e2846001 	add	r6, r4, #1
    4484:	e28d1088 	add	r1, sp, #136	; 0x88
    4488:	e28d208c 	add	r2, sp, #140	; 0x8c
    448c:	e58d7024 	str	r7, [sp, #36]	; 0x24
    4490:	e3a00002 	mov	r0, #2
    4494:	e88d0041 	stm	sp, {r0, r6}
    4498:	e58d200c 	str	r2, [sp, #12]
    449c:	e58d3010 	str	r3, [sp, #16]
    44a0:	e58d1008 	str	r1, [sp, #8]
    44a4:	e59d002c 	ldr	r0, [sp, #44]	; 0x2c
    44a8:	e28d3020 	add	r3, sp, #32
    44ac:	e893000c 	ldm	r3, {r2, r3}
    44b0:	eb00092a 	bl	6960 <_dtoa_r>
    44b4:	e58d004c 	str	r0, [sp, #76]	; 0x4c
    44b8:	e0806006 	add	r6, r0, r6
    44bc:	e1a0000a 	mov	r0, r10
    44c0:	e1a01007 	mov	r1, r7
    44c4:	e3a02000 	mov	r2, #0
    44c8:	e3a03000 	mov	r3, #0
    44cc:	ebfff78d 	bl	2308 <__aeabi_dcmpeq>
    44d0:	e3500000 	cmp	r0, #0
    44d4:	1a000008 	bne	44fc <_vfprintf_r+0x1928>
    44d8:	e59d3090 	ldr	r3, [sp, #144]	; 0x90
    44dc:	e1560003 	cmp	r6, r3
    44e0:	91a06003 	movls	r6, r3
    44e4:	9a000004 	bls	44fc <_vfprintf_r+0x1928>
    44e8:	e3a02030 	mov	r2, #48	; 0x30
    44ec:	e4c32001 	strb	r2, [r3], #1
    44f0:	e1530006 	cmp	r3, r6
    44f4:	e58d3090 	str	r3, [sp, #144]	; 0x90
    44f8:	1afffffb 	bne	44ec <_vfprintf_r+0x1918>
    44fc:	e59d704c 	ldr	r7, [sp, #76]	; 0x4c
    4500:	e3590047 	cmp	r9, #71	; 0x47
    4504:	e0676006 	rsb	r6, r7, r6
    4508:	e58d6044 	str	r6, [sp, #68]	; 0x44
    450c:	0a000163 	beq	4aa0 <_vfprintf_r+0x1ecc>
    4510:	e3580065 	cmp	r8, #101	; 0x65
    4514:	da000201 	ble	4d20 <_vfprintf_r+0x214c>
    4518:	e3580066 	cmp	r8, #102	; 0x66
    451c:	e59d3088 	ldr	r3, [sp, #136]	; 0x88
    4520:	0a0001a5 	beq	4bbc <_vfprintf_r+0x1fe8>
    4524:	e59dc044 	ldr	r12, [sp, #68]	; 0x44
    4528:	e153000c 	cmp	r3, r12
    452c:	ba000198 	blt	4b94 <_vfprintf_r+0x1fc0>
    4530:	e59d4018 	ldr	r4, [sp, #24]
    4534:	e3140001 	tst	r4, #1
    4538:	12837001 	addne	r7, r3, #1
    453c:	01c36fc3 	biceq	r6, r3, r3, asr #31
    4540:	11c7cfc7 	bicne	r12, r7, r7, asr #31
    4544:	058d6020 	streq	r6, [sp, #32]
    4548:	058d3038 	streq	r3, [sp, #56]	; 0x38
    454c:	158d7038 	strne	r7, [sp, #56]	; 0x38
    4550:	158dc020 	strne	r12, [sp, #32]
    4554:	e3a08067 	mov	r8, #103	; 0x67
    4558:	e58d3060 	str	r3, [sp, #96]	; 0x60
    455c:	e35b0000 	cmp	r11, #0
    4560:	0a000128 	beq	4a08 <_vfprintf_r+0x1e34>
    4564:	e59db040 	ldr	r11, [sp, #64]	; 0x40
    4568:	e3a0302d 	mov	r3, #45	; 0x2d
    456c:	e3a0c000 	mov	r12, #0
    4570:	e5cd3083 	strb	r3, [sp, #131]	; 0x83
    4574:	e58db018 	str	r11, [sp, #24]
    4578:	e58dc040 	str	r12, [sp, #64]	; 0x40
    457c:	eafffb1a 	b	31ec <_vfprintf_r+0x618>
    4580:	e59dc03c 	ldr	r12, [sp, #60]	; 0x3c
    4584:	e28c1007 	add	r1, r12, #7
    4588:	e3c11007 	bic	r1, r1, #7
    458c:	e591a000 	ldr	r10, [r1]
    4590:	e5917004 	ldr	r7, [r1, #4]
    4594:	e2811008 	add	r1, r1, #8
    4598:	e58d103c 	str	r1, [sp, #60]	; 0x3c
    459c:	e1a0000a 	mov	r0, r10
    45a0:	e1a01007 	mov	r1, r7
    45a4:	e58d0068 	str	r0, [sp, #104]	; 0x68
    45a8:	e58d106c 	str	r1, [sp, #108]	; 0x6c
    45ac:	eafffb6a 	b	335c <_vfprintf_r+0x788>
    45b0:	e59d7018 	ldr	r7, [sp, #24]
    45b4:	e3170010 	tst	r7, #16
    45b8:	1a000009 	bne	45e4 <_vfprintf_r+0x1a10>
    45bc:	e59d4018 	ldr	r4, [sp, #24]
    45c0:	e3140040 	tst	r4, #64	; 0x40
    45c4:	0a000006 	beq	45e4 <_vfprintf_r+0x1a10>
    45c8:	e59d603c 	ldr	r6, [sp, #60]	; 0x3c
    45cc:	e59d7034 	ldr	r7, [sp, #52]	; 0x34
    45d0:	e5963000 	ldr	r3, [r6]
    45d4:	e2866004 	add	r6, r6, #4
    45d8:	e58d603c 	str	r6, [sp, #60]	; 0x3c
    45dc:	e1c370b0 	strh	r7, [r3]
    45e0:	eafff9b3 	b	2cb4 <_vfprintf_r+0xe0>
    45e4:	e59db03c 	ldr	r11, [sp, #60]	; 0x3c
    45e8:	e59dc034 	ldr	r12, [sp, #52]	; 0x34
    45ec:	e59b3000 	ldr	r3, [r11]
    45f0:	e28bb004 	add	r11, r11, #4
    45f4:	e58db03c 	str	r11, [sp, #60]	; 0x3c
    45f8:	e583c000 	str	r12, [r3]
    45fc:	eafff9ac 	b	2cb4 <_vfprintf_r+0xe0>
    4600:	e59dc018 	ldr	r12, [sp, #24]
    4604:	e31c0040 	tst	r12, #64	; 0x40
    4608:	0a00008d 	beq	4844 <_vfprintf_r+0x1c70>
    460c:	e59d603c 	ldr	r6, [sp, #60]	; 0x3c
    4610:	e1d630f0 	ldrsh	r3, [r6]
    4614:	eafffc4a 	b	3744 <_vfprintf_r+0xb70>
    4618:	e59dc018 	ldr	r12, [sp, #24]
    461c:	e31c0040 	tst	r12, #64	; 0x40
    4620:	0a000080 	beq	4828 <_vfprintf_r+0x1c54>
    4624:	e59d603c 	ldr	r6, [sp, #60]	; 0x3c
    4628:	e59db03c 	ldr	r11, [sp, #60]	; 0x3c
    462c:	e1d630b0 	ldrh	r3, [r6]
    4630:	e28bb004 	add	r11, r11, #4
    4634:	e1a06003 	mov	r6, r3
    4638:	e3a07000 	mov	r7, #0
    463c:	e58db03c 	str	r11, [sp, #60]	; 0x3c
    4640:	eafffb99 	b	34ac <_vfprintf_r+0x8d8>
    4644:	e59dc018 	ldr	r12, [sp, #24]
    4648:	e31c0040 	tst	r12, #64	; 0x40
    464c:	0a00006b 	beq	4800 <_vfprintf_r+0x1c2c>
    4650:	e59d603c 	ldr	r6, [sp, #60]	; 0x3c
    4654:	e1d620b0 	ldrh	r2, [r6]
    4658:	eafffc17 	b	36bc <_vfprintf_r+0xae8>
    465c:	e59dc018 	ldr	r12, [sp, #24]
    4660:	e21c3040 	ands	r3, r12, #64	; 0x40
    4664:	0a00005c 	beq	47dc <_vfprintf_r+0x1c08>
    4668:	e59d603c 	ldr	r6, [sp, #60]	; 0x3c
    466c:	e59db03c 	ldr	r11, [sp, #60]	; 0x3c
    4670:	e1d620b0 	ldrh	r2, [r6]
    4674:	e3a07000 	mov	r7, #0
    4678:	e1a06002 	mov	r6, r2
    467c:	e28bb004 	add	r11, r11, #4
    4680:	e0522007 	subs	r2, r2, r7
    4684:	13a02001 	movne	r2, #1
    4688:	e58db03c 	str	r11, [sp, #60]	; 0x3c
    468c:	e1a03001 	mov	r3, r1
    4690:	eafffb64 	b	3428 <_vfprintf_r+0x854>
    4694:	e59d002c 	ldr	r0, [sp, #44]	; 0x2c
    4698:	e59d101c 	ldr	r1, [sp, #28]
    469c:	e28d20a4 	add	r2, sp, #164	; 0xa4
    46a0:	eb002dc5 	bl	fdbc <__sprint_r>
    46a4:	e3500000 	cmp	r0, #0
    46a8:	e28d40b0 	add	r4, sp, #176	; 0xb0
    46ac:	1afffa2d 	bne	2f68 <_vfprintf_r+0x394>
    46b0:	e59d60ac 	ldr	r6, [sp, #172]	; 0xac
    46b4:	e28d5d05 	add	r5, sp, #320	; 0x140
    46b8:	eafffd16 	b	3b18 <_vfprintf_r+0xf44>
    46bc:	e59d40a8 	ldr	r4, [sp, #168]	; 0xa8
    46c0:	e51f376c 	ldr	r3, [pc, #-1900]	; 3f5c <_vfprintf_r+0x1388>
    46c4:	e2844001 	add	r4, r4, #1
    46c8:	e5853000 	str	r3, [r5]
    46cc:	e2866001 	add	r6, r6, #1
    46d0:	e3540007 	cmp	r4, #7
    46d4:	e3a03001 	mov	r3, #1
    46d8:	e5853004 	str	r3, [r5, #4]
    46dc:	e58d60ac 	str	r6, [sp, #172]	; 0xac
    46e0:	e58d40a8 	str	r4, [sp, #168]	; 0xa8
    46e4:	d2855008 	addle	r5, r5, #8
    46e8:	ca000074 	bgt	48c0 <_vfprintf_r+0x1cec>
    46ec:	e3580000 	cmp	r8, #0
    46f0:	0a00006b 	beq	48a4 <_vfprintf_r+0x1cd0>
    46f4:	e59d40a8 	ldr	r4, [sp, #168]	; 0xa8
    46f8:	e59dc064 	ldr	r12, [sp, #100]	; 0x64
    46fc:	e2844001 	add	r4, r4, #1
    4700:	e59d7058 	ldr	r7, [sp, #88]	; 0x58
    4704:	e086600c 	add	r6, r6, r12
    4708:	e3540007 	cmp	r4, #7
    470c:	e8851080 	stm	r5, {r7, r12}
    4710:	e58d60ac 	str	r6, [sp, #172]	; 0xac
    4714:	e58d40a8 	str	r4, [sp, #168]	; 0xa8
    4718:	d2855008 	addle	r5, r5, #8
    471c:	ca00010e 	bgt	4b5c <_vfprintf_r+0x1f88>
    4720:	e2688000 	rsb	r8, r8, #0
    4724:	e3580000 	cmp	r8, #0
    4728:	da00008a 	ble	4958 <_vfprintf_r+0x1d84>
    472c:	e3580010 	cmp	r8, #16
    4730:	e51f77d8 	ldr	r7, [pc, #-2008]	; 3f60 <_vfprintf_r+0x138c>
    4734:	da000076 	ble	4914 <_vfprintf_r+0x1d40>
    4738:	e3a0a010 	mov	r10, #16
    473c:	e28d90a4 	add	r9, sp, #164	; 0xa4
    4740:	e59db02c 	ldr	r11, [sp, #44]	; 0x2c
    4744:	ea000002 	b	4754 <_vfprintf_r+0x1b80>
    4748:	e2488010 	sub	r8, r8, #16
    474c:	e3580010 	cmp	r8, #16
    4750:	da00006f 	ble	4914 <_vfprintf_r+0x1d40>
    4754:	e2844001 	add	r4, r4, #1
    4758:	e3540007 	cmp	r4, #7
    475c:	e2866010 	add	r6, r6, #16
    4760:	e8850480 	stm	r5, {r7, r10}
    4764:	e58d60ac 	str	r6, [sp, #172]	; 0xac
    4768:	e58d40a8 	str	r4, [sp, #168]	; 0xa8
    476c:	d2855008 	addle	r5, r5, #8
    4770:	dafffff4 	ble	4748 <_vfprintf_r+0x1b74>
    4774:	e1a0000b 	mov	r0, r11
    4778:	e59d101c 	ldr	r1, [sp, #28]
    477c:	e1a02009 	mov	r2, r9
    4780:	eb002d8d 	bl	fdbc <__sprint_r>
    4784:	e3500000 	cmp	r0, #0
    4788:	1afff9f6 	bne	2f68 <_vfprintf_r+0x394>
    478c:	e28d40a8 	add	r4, sp, #168	; 0xa8
    4790:	e8940050 	ldm	r4, {r4, r6}
    4794:	e28d5d05 	add	r5, sp, #320	; 0x140
    4798:	eaffffea 	b	4748 <_vfprintf_r+0x1b74>
    479c:	e59d30ac 	ldr	r3, [sp, #172]	; 0xac
    47a0:	e3530000 	cmp	r3, #0
    47a4:	e59d901c 	ldr	r9, [sp, #28]
    47a8:	0afff9ef 	beq	2f6c <_vfprintf_r+0x398>
    47ac:	e59d002c 	ldr	r0, [sp, #44]	; 0x2c
    47b0:	e1a01009 	mov	r1, r9
    47b4:	e28d20a4 	add	r2, sp, #164	; 0xa4
    47b8:	eb002d7f 	bl	fdbc <__sprint_r>
    47bc:	eafff9ea 	b	2f6c <_vfprintf_r+0x398>
    47c0:	e59db038 	ldr	r11, [sp, #56]	; 0x38
    47c4:	e1cbbfcb 	bic	r11, r11, r11, asr #31
    47c8:	e58db020 	str	r11, [sp, #32]
    47cc:	e5dd3083 	ldrb	r3, [sp, #131]	; 0x83
    47d0:	e58d703c 	str	r7, [sp, #60]	; 0x3c
    47d4:	e58d6060 	str	r6, [sp, #96]	; 0x60
    47d8:	eafffa81 	b	31e4 <_vfprintf_r+0x610>
    47dc:	e59dc03c 	ldr	r12, [sp, #60]	; 0x3c
    47e0:	e59c2000 	ldr	r2, [r12]
    47e4:	e3a07000 	mov	r7, #0
    47e8:	e1a06002 	mov	r6, r2
    47ec:	e28cc004 	add	r12, r12, #4
    47f0:	e0522007 	subs	r2, r2, r7
    47f4:	13a02001 	movne	r2, #1
    47f8:	e58dc03c 	str	r12, [sp, #60]	; 0x3c
    47fc:	eafffb09 	b	3428 <_vfprintf_r+0x854>
    4800:	e59dc03c 	ldr	r12, [sp, #60]	; 0x3c
    4804:	e59c2000 	ldr	r2, [r12]
    4808:	e3a07000 	mov	r7, #0
    480c:	e1a06002 	mov	r6, r2
    4810:	e28cc004 	add	r12, r12, #4
    4814:	e0522007 	subs	r2, r2, r7
    4818:	13a02001 	movne	r2, #1
    481c:	e58dc03c 	str	r12, [sp, #60]	; 0x3c
    4820:	e3a03001 	mov	r3, #1
    4824:	eafffaff 	b	3428 <_vfprintf_r+0x854>
    4828:	e59dc03c 	ldr	r12, [sp, #60]	; 0x3c
    482c:	e59c3000 	ldr	r3, [r12]
    4830:	e28cc004 	add	r12, r12, #4
    4834:	e1a06003 	mov	r6, r3
    4838:	e3a07000 	mov	r7, #0
    483c:	e58dc03c 	str	r12, [sp, #60]	; 0x3c
    4840:	eafffb19 	b	34ac <_vfprintf_r+0x8d8>
    4844:	e59dc03c 	ldr	r12, [sp, #60]	; 0x3c
    4848:	e59c3000 	ldr	r3, [r12]
    484c:	e28cc004 	add	r12, r12, #4
    4850:	e1a07fc3 	asr	r7, r3, #31
    4854:	e1a06003 	mov	r6, r3
    4858:	e1a02003 	mov	r2, r3
    485c:	e58dc03c 	str	r12, [sp, #60]	; 0x3c
    4860:	e1a03007 	mov	r3, r7
    4864:	eafffa2d 	b	3120 <_vfprintf_r+0x54c>
    4868:	e51f390c 	ldr	r3, [pc, #-2316]	; 3f64 <_vfprintf_r+0x1390>
    486c:	e59dc018 	ldr	r12, [sp, #24]
    4870:	e51f2910 	ldr	r2, [pc, #-2320]	; 3f68 <_vfprintf_r+0x1394>
    4874:	e3580047 	cmp	r8, #71	; 0x47
    4878:	e3a0b003 	mov	r11, #3
    487c:	d1a02003 	movle	r2, r3
    4880:	e3ccc080 	bic	r12, r12, #128	; 0x80
    4884:	e58db020 	str	r11, [sp, #32]
    4888:	e58d0040 	str	r0, [sp, #64]	; 0x40
    488c:	e58d204c 	str	r2, [sp, #76]	; 0x4c
    4890:	e58dc018 	str	r12, [sp, #24]
    4894:	e5dd3083 	ldrb	r3, [sp, #131]	; 0x83
    4898:	e58db038 	str	r11, [sp, #56]	; 0x38
    489c:	e58d0060 	str	r0, [sp, #96]	; 0x60
    48a0:	eafffa4f 	b	31e4 <_vfprintf_r+0x610>
    48a4:	e59d7044 	ldr	r7, [sp, #68]	; 0x44
    48a8:	e3570000 	cmp	r7, #0
    48ac:	1affff90 	bne	46f4 <_vfprintf_r+0x1b20>
    48b0:	e59db018 	ldr	r11, [sp, #24]
    48b4:	e31b0001 	tst	r11, #1
    48b8:	0afffc3a 	beq	39a8 <_vfprintf_r+0xdd4>
    48bc:	eaffff8c 	b	46f4 <_vfprintf_r+0x1b20>
    48c0:	e59d002c 	ldr	r0, [sp, #44]	; 0x2c
    48c4:	e59d101c 	ldr	r1, [sp, #28]
    48c8:	e28d20a4 	add	r2, sp, #164	; 0xa4
    48cc:	eb002d3a 	bl	fdbc <__sprint_r>
    48d0:	e3500000 	cmp	r0, #0
    48d4:	e28d40b0 	add	r4, sp, #176	; 0xb0
    48d8:	1afff9a2 	bne	2f68 <_vfprintf_r+0x394>
    48dc:	e59d8088 	ldr	r8, [sp, #136]	; 0x88
    48e0:	e59d60ac 	ldr	r6, [sp, #172]	; 0xac
    48e4:	e28d5d05 	add	r5, sp, #320	; 0x140
    48e8:	eaffff7f 	b	46ec <_vfprintf_r+0x1b18>
    48ec:	e59d002c 	ldr	r0, [sp, #44]	; 0x2c
    48f0:	e59d101c 	ldr	r1, [sp, #28]
    48f4:	e28d20a4 	add	r2, sp, #164	; 0xa4
    48f8:	eb002d2f 	bl	fdbc <__sprint_r>
    48fc:	e3500000 	cmp	r0, #0
    4900:	e28db0b0 	add	r11, sp, #176	; 0xb0
    4904:	1afff997 	bne	2f68 <_vfprintf_r+0x394>
    4908:	e59d60ac 	ldr	r6, [sp, #172]	; 0xac
    490c:	e28d5d05 	add	r5, sp, #320	; 0x140
    4910:	eafffc92 	b	3b60 <_vfprintf_r+0xf8c>
    4914:	e2844001 	add	r4, r4, #1
    4918:	e0866008 	add	r6, r6, r8
    491c:	e3540007 	cmp	r4, #7
    4920:	e8850180 	stm	r5, {r7, r8}
    4924:	e58d60ac 	str	r6, [sp, #172]	; 0xac
    4928:	e58d40a8 	str	r4, [sp, #168]	; 0xa8
    492c:	d2855008 	addle	r5, r5, #8
    4930:	da000008 	ble	4958 <_vfprintf_r+0x1d84>
    4934:	e59d002c 	ldr	r0, [sp, #44]	; 0x2c
    4938:	e59d101c 	ldr	r1, [sp, #28]
    493c:	e28d20a4 	add	r2, sp, #164	; 0xa4
    4940:	eb002d1d 	bl	fdbc <__sprint_r>
    4944:	e3500000 	cmp	r0, #0
    4948:	1afff986 	bne	2f68 <_vfprintf_r+0x394>
    494c:	e28d40a8 	add	r4, sp, #168	; 0xa8
    4950:	e8940050 	ldm	r4, {r4, r6}
    4954:	e28d5d05 	add	r5, sp, #320	; 0x140
    4958:	e2844001 	add	r4, r4, #1
    495c:	e59d7044 	ldr	r7, [sp, #68]	; 0x44
    4960:	eafffc07 	b	3984 <_vfprintf_r+0xdb0>
    4964:	ebfff882 	bl	2b74 <strlen>
    4968:	e1c0cfc0 	bic	r12, r0, r0, asr #31
    496c:	e58d0038 	str	r0, [sp, #56]	; 0x38
    4970:	e58d6040 	str	r6, [sp, #64]	; 0x40
    4974:	e58dc020 	str	r12, [sp, #32]
    4978:	e5dd3083 	ldrb	r3, [sp, #131]	; 0x83
    497c:	e58d703c 	str	r7, [sp, #60]	; 0x3c
    4980:	e58d6060 	str	r6, [sp, #96]	; 0x60
    4984:	eafffa16 	b	31e4 <_vfprintf_r+0x610>
    4988:	e59d002c 	ldr	r0, [sp, #44]	; 0x2c
    498c:	e59d101c 	ldr	r1, [sp, #28]
    4990:	e28d20a4 	add	r2, sp, #164	; 0xa4
    4994:	eb002d08 	bl	fdbc <__sprint_r>
    4998:	e3500000 	cmp	r0, #0
    499c:	e28d60b0 	add	r6, sp, #176	; 0xb0
    49a0:	1afff970 	bne	2f68 <_vfprintf_r+0x394>
    49a4:	e59d60ac 	ldr	r6, [sp, #172]	; 0xac
    49a8:	e28d5d05 	add	r5, sp, #320	; 0x140
    49ac:	eafffd3f 	b	3eb0 <_vfprintf_r+0x12dc>
    49b0:	e59d002c 	ldr	r0, [sp, #44]	; 0x2c
    49b4:	e59d101c 	ldr	r1, [sp, #28]
    49b8:	e28d20a4 	add	r2, sp, #164	; 0xa4
    49bc:	eb002cfe 	bl	fdbc <__sprint_r>
    49c0:	e3500000 	cmp	r0, #0
    49c4:	e28d60b0 	add	r6, sp, #176	; 0xb0
    49c8:	1afff966 	bne	2f68 <_vfprintf_r+0x394>
    49cc:	e59d3088 	ldr	r3, [sp, #136]	; 0x88
    49d0:	e59db044 	ldr	r11, [sp, #68]	; 0x44
    49d4:	e59d60ac 	ldr	r6, [sp, #172]	; 0xac
    49d8:	e063300b 	rsb	r3, r3, r11
    49dc:	e28d5d05 	add	r5, sp, #320	; 0x140
    49e0:	eafffde9 	b	418c <_vfprintf_r+0x15b8>
    49e4:	e3540006 	cmp	r4, #6
    49e8:	23a04006 	movcs	r4, #6
    49ec:	e1c4cfc4 	bic	r12, r4, r4, asr #31
    49f0:	e58d4038 	str	r4, [sp, #56]	; 0x38
    49f4:	e51f4a90 	ldr	r4, [pc, #-2704]	; 3f6c <_vfprintf_r+0x1398>
    49f8:	e58dc020 	str	r12, [sp, #32]
    49fc:	e58d703c 	str	r7, [sp, #60]	; 0x3c
    4a00:	e58d404c 	str	r4, [sp, #76]	; 0x4c
    4a04:	eafffb0a 	b	3634 <_vfprintf_r+0xa60>
    4a08:	e59d6040 	ldr	r6, [sp, #64]	; 0x40
    4a0c:	e5dd3083 	ldrb	r3, [sp, #131]	; 0x83
    4a10:	e58d6018 	str	r6, [sp, #24]
    4a14:	e58db040 	str	r11, [sp, #64]	; 0x40
    4a18:	eafff9f1 	b	31e4 <_vfprintf_r+0x610>
    4a1c:	e3a02003 	mov	r2, #3
    4a20:	e28d3090 	add	r3, sp, #144	; 0x90
    4a24:	e58da020 	str	r10, [sp, #32]
    4a28:	e28d0088 	add	r0, sp, #136	; 0x88
    4a2c:	e28d108c 	add	r1, sp, #140	; 0x8c
    4a30:	e58d7024 	str	r7, [sp, #36]	; 0x24
    4a34:	e88d0014 	stm	sp, {r2, r4}
    4a38:	e58d0008 	str	r0, [sp, #8]
    4a3c:	e58d3010 	str	r3, [sp, #16]
    4a40:	e58d100c 	str	r1, [sp, #12]
    4a44:	e59d002c 	ldr	r0, [sp, #44]	; 0x2c
    4a48:	e28d3020 	add	r3, sp, #32
    4a4c:	e893000c 	ldm	r3, {r2, r3}
    4a50:	eb0007c2 	bl	6960 <_dtoa_r>
    4a54:	e3590047 	cmp	r9, #71	; 0x47
    4a58:	e58d004c 	str	r0, [sp, #76]	; 0x4c
    4a5c:	1a000002 	bne	4a6c <_vfprintf_r+0x1e98>
    4a60:	e59dc018 	ldr	r12, [sp, #24]
    4a64:	e31c0001 	tst	r12, #1
    4a68:	0a000009 	beq	4a94 <_vfprintf_r+0x1ec0>
    4a6c:	e59dc04c 	ldr	r12, [sp, #76]	; 0x4c
    4a70:	e3560000 	cmp	r6, #0
    4a74:	e08c6004 	add	r6, r12, r4
    4a78:	0afffe8f 	beq	44bc <_vfprintf_r+0x18e8>
    4a7c:	e5dc3000 	ldrb	r3, [r12]
    4a80:	e3530030 	cmp	r3, #48	; 0x30
    4a84:	0a000075 	beq	4c60 <_vfprintf_r+0x208c>
    4a88:	e59d3088 	ldr	r3, [sp, #136]	; 0x88
    4a8c:	e0866003 	add	r6, r6, r3
    4a90:	eafffe89 	b	44bc <_vfprintf_r+0x18e8>
    4a94:	e59d3090 	ldr	r3, [sp, #144]	; 0x90
    4a98:	e0603003 	rsb	r3, r0, r3
    4a9c:	e58d3044 	str	r3, [sp, #68]	; 0x44
    4aa0:	e59d0088 	ldr	r0, [sp, #136]	; 0x88
    4aa4:	e3700003 	cmn	r0, #3
    4aa8:	e1a03000 	mov	r3, r0
    4aac:	ba000001 	blt	4ab8 <_vfprintf_r+0x1ee4>
    4ab0:	e1540000 	cmp	r4, r0
    4ab4:	aafffe9a 	bge	4524 <_vfprintf_r+0x1950>
    4ab8:	e2488002 	sub	r8, r8, #2
    4abc:	e2400001 	sub	r0, r0, #1
    4ac0:	e3500000 	cmp	r0, #0
    4ac4:	e58d0088 	str	r0, [sp, #136]	; 0x88
    4ac8:	b2600000 	rsblt	r0, r0, #0
    4acc:	b3a0302d 	movlt	r3, #45	; 0x2d
    4ad0:	a3a0302b 	movge	r3, #43	; 0x2b
    4ad4:	e3500009 	cmp	r0, #9
    4ad8:	e5cd8094 	strb	r8, [sp, #148]	; 0x94
    4adc:	e5cd3095 	strb	r3, [sp, #149]	; 0x95
    4ae0:	ca000040 	bgt	4be8 <_vfprintf_r+0x2014>
    4ae4:	e2800030 	add	r0, r0, #48	; 0x30
    4ae8:	e3a02030 	mov	r2, #48	; 0x30
    4aec:	e28d30a0 	add	r3, sp, #160	; 0xa0
    4af0:	e5cd0097 	strb	r0, [sp, #151]	; 0x97
    4af4:	e5cd2096 	strb	r2, [sp, #150]	; 0x96
    4af8:	e2432008 	sub	r2, r3, #8
    4afc:	e59d6044 	ldr	r6, [sp, #68]	; 0x44
    4b00:	e243300c 	sub	r3, r3, #12
    4b04:	e0633002 	rsb	r3, r3, r2
    4b08:	e0867003 	add	r7, r6, r3
    4b0c:	e3560001 	cmp	r6, #1
    4b10:	e58d3070 	str	r3, [sp, #112]	; 0x70
    4b14:	e58d7038 	str	r7, [sp, #56]	; 0x38
    4b18:	da000072 	ble	4ce8 <_vfprintf_r+0x2114>
    4b1c:	e59d6038 	ldr	r6, [sp, #56]	; 0x38
    4b20:	e2866001 	add	r6, r6, #1
    4b24:	e1c67fc6 	bic	r7, r6, r6, asr #31
    4b28:	e3a0c000 	mov	r12, #0
    4b2c:	e58d6038 	str	r6, [sp, #56]	; 0x38
    4b30:	e58d7020 	str	r7, [sp, #32]
    4b34:	e58dc060 	str	r12, [sp, #96]	; 0x60
    4b38:	eafffe87 	b	455c <_vfprintf_r+0x1988>
    4b3c:	e1c46fc4 	bic	r6, r4, r4, asr #31
    4b40:	e58d0040 	str	r0, [sp, #64]	; 0x40
    4b44:	e58d6020 	str	r6, [sp, #32]
    4b48:	e5dd3083 	ldrb	r3, [sp, #131]	; 0x83
    4b4c:	e58d703c 	str	r7, [sp, #60]	; 0x3c
    4b50:	e58d4038 	str	r4, [sp, #56]	; 0x38
    4b54:	e58d0060 	str	r0, [sp, #96]	; 0x60
    4b58:	eafff9a1 	b	31e4 <_vfprintf_r+0x610>
    4b5c:	e59d002c 	ldr	r0, [sp, #44]	; 0x2c
    4b60:	e59d101c 	ldr	r1, [sp, #28]
    4b64:	e28d20a4 	add	r2, sp, #164	; 0xa4
    4b68:	eb002c93 	bl	fdbc <__sprint_r>
    4b6c:	e3500000 	cmp	r0, #0
    4b70:	e28db0b0 	add	r11, sp, #176	; 0xb0
    4b74:	1afff8fb 	bne	2f68 <_vfprintf_r+0x394>
    4b78:	e28d40a8 	add	r4, sp, #168	; 0xa8
    4b7c:	e59d8088 	ldr	r8, [sp, #136]	; 0x88
    4b80:	e8940050 	ldm	r4, {r4, r6}
    4b84:	e28d5d05 	add	r5, sp, #320	; 0x140
    4b88:	eafffee4 	b	4720 <_vfprintf_r+0x1b4c>
    4b8c:	e3a02002 	mov	r2, #2
